

Microchip MPLAB XC8 Assembler V2.45 build 20230818022343 
                                                                                               Sun Dec 31 13:00:52 2023

Microchip MPLAB XC8 C Compiler v2.45 (Free license) build 20230818022343 Og1 
     1                           	processor	16F877A
     2                           	pagewidth 120
     3                           	opt	flic
     4                           	psect	idataBANK0,global,class=CODE,delta=2,noexec
     5                           	psect	idataBANK1,global,class=CODE,delta=2,noexec
     6                           	psect	cinit,global,class=CODE,merge=1,delta=2
     7                           	psect	bssBANK0,global,class=BANK0,space=1,delta=1,noexec
     8                           	psect	dataBANK0,global,class=BANK0,space=1,delta=1,noexec
     9                           	psect	dataBANK1,global,class=BANK1,space=1,delta=1,noexec
    10                           	psect	inittext,global,class=CODE,delta=2
    11                           	psect	clrtext,global,class=CODE,delta=2
    12                           	psect	cstackCOMMON,global,class=COMMON,space=1,delta=1,noexec
    13                           	psect	cstackBANK0,global,class=BANK0,space=1,delta=1,noexec
    14                           	psect	maintext,global,class=CODE,split=1,delta=2
    15                           	psect	text1,local,class=CODE,merge=1,delta=2
    16                           	psect	text2,local,class=CODE,merge=1,delta=2
    17                           	psect	text3,local,class=CODE,merge=1,delta=2,group=1
    18                           	psect	text4,local,class=CODE,merge=1,delta=2,group=1
    19                           	psect	text5,local,class=CODE,merge=1,delta=2
    20                           	psect	text6,local,class=CODE,merge=1,delta=2
    21                           	psect	text7,local,class=CODE,merge=1,delta=2
    22                           	psect	text8,local,class=CODE,merge=1,delta=2,group=1
    23                           	psect	text9,local,class=CODE,merge=1,delta=2,group=1
    24                           	psect	text10,local,class=CODE,merge=1,delta=2,group=1
    25                           	psect	text11,local,class=CODE,merge=1,delta=2,group=1
    26                           	psect	text12,local,class=CODE,merge=1,delta=2
    27                           	psect	text13,local,class=CODE,merge=1,delta=2
    28                           	psect	config,global,abs,ovrld,class=CONFIG,space=4,delta=2,noexec
    29                           	dabs	1,0x7E,2
    30     0000                     
    31                           ; Generated 22/03/2023 GMT
    32                           ; 
    33                           ; Copyright © 2023, Microchip Technology Inc. and its subsidiaries ("Microchip")
    34                           ; All rights reserved.
    35                           ; 
    36                           ; This software is developed by Microchip Technology Inc. and its subsidiaries ("Microch
      +                          ip").
    37                           ; 
    38                           ; Redistribution and use in source and binary forms, with or without modification, are
    39                           ; permitted provided that the following conditions are met:
    40                           ; 
    41                           ;     1. Redistributions of source code must retain the above copyright notice, this lis
      +                          t of
    42                           ;        conditions and the following disclaimer.
    43                           ; 
    44                           ;     2. Redistributions in binary form must reproduce the above copyright notice, this 
      +                          list
    45                           ;        of conditions and the following disclaimer in the documentation and/or other
    46                           ;        materials provided with the distribution. Publication is not required when
    47                           ;        this file is used in an embedded application.
    48                           ; 
    49                           ;     3. Microchip's name may not be used to endorse or promote products derived from th
      +                          is
    50                           ;        software without specific prior written permission.
    51                           ; 
    52                           ; THIS SOFTWARE IS PROVIDED BY MICROCHIP "AS IS" AND ANY EXPRESS OR IMPLIED WARRANTIES,
    53                           ; INCLUDING, BUT NOT LIMITED TO, THE IMPLIED WARRANTIES OF MERCHANTABILITY AND FITNESS F
      +                          OR
    54                           ; PURPOSE ARE DISCLAIMED.  IN NO EVENT SHALL MICROCHIP BE LIABLE FOR ANY DIRECT, INDIREC
      +                          T,
    55                           ; INCIDENTAL, SPECIAL, EXEMPLARY, OR CONSEQUENTIAL DAMAGES (INCLUDING BUT NOT LIMITED TO
    56                           ; PROCUREMENT OF SUBSTITUTE GOODS OR SERVICES; LOSS OF USE, DATA OR PROFITS; OR BUSINESS
    57                           ; INTERRUPTION) HOWSOEVER CAUSED AND ON ANY THEORY OF LIABILITY, WHETHER IN CONTRACT, ST
      +                          RICT
    58                           ; LIABILITY, OR TORT (INCLUDING NEGLIGENCE OR OTHERWISE) ARISING IN ANY WAY OUT OF THE U
      +                          SE OF
    59                           ; THIS SOFTWARE, EVEN IF ADVISED OF THE POSSIBILITY OF SUCH DAMAGE.
    60                           ; 
    61                           ; 
    62                           ; Code-generator required, PIC16F877A Definitions
    63                           ; 
    64                           ; SFR Addresses
    65     0000                     	;# 
    66     0001                     	;# 
    67     0002                     	;# 
    68     0003                     	;# 
    69     0004                     	;# 
    70     0005                     	;# 
    71     0006                     	;# 
    72     0007                     	;# 
    73     0008                     	;# 
    74     0009                     	;# 
    75     000A                     	;# 
    76     000B                     	;# 
    77     000C                     	;# 
    78     000D                     	;# 
    79     000E                     	;# 
    80     000E                     	;# 
    81     000F                     	;# 
    82     0010                     	;# 
    83     0011                     	;# 
    84     0012                     	;# 
    85     0013                     	;# 
    86     0014                     	;# 
    87     0015                     	;# 
    88     0015                     	;# 
    89     0016                     	;# 
    90     0017                     	;# 
    91     0018                     	;# 
    92     0019                     	;# 
    93     001A                     	;# 
    94     001B                     	;# 
    95     001B                     	;# 
    96     001C                     	;# 
    97     001D                     	;# 
    98     001E                     	;# 
    99     001F                     	;# 
   100     0081                     	;# 
   101     0085                     	;# 
   102     0086                     	;# 
   103     0087                     	;# 
   104     0088                     	;# 
   105     0089                     	;# 
   106     008C                     	;# 
   107     008D                     	;# 
   108     008E                     	;# 
   109     0091                     	;# 
   110     0092                     	;# 
   111     0093                     	;# 
   112     0094                     	;# 
   113     0098                     	;# 
   114     0099                     	;# 
   115     009C                     	;# 
   116     009D                     	;# 
   117     009E                     	;# 
   118     009F                     	;# 
   119     010C                     	;# 
   120     010D                     	;# 
   121     010E                     	;# 
   122     010F                     	;# 
   123     018C                     	;# 
   124     018D                     	;# 
   125     0000                     	;# 
   126     0001                     	;# 
   127     0002                     	;# 
   128     0003                     	;# 
   129     0004                     	;# 
   130     0005                     	;# 
   131     0006                     	;# 
   132     0007                     	;# 
   133     0008                     	;# 
   134     0009                     	;# 
   135     000A                     	;# 
   136     000B                     	;# 
   137     000C                     	;# 
   138     000D                     	;# 
   139     000E                     	;# 
   140     000E                     	;# 
   141     000F                     	;# 
   142     0010                     	;# 
   143     0011                     	;# 
   144     0012                     	;# 
   145     0013                     	;# 
   146     0014                     	;# 
   147     0015                     	;# 
   148     0015                     	;# 
   149     0016                     	;# 
   150     0017                     	;# 
   151     0018                     	;# 
   152     0019                     	;# 
   153     001A                     	;# 
   154     001B                     	;# 
   155     001B                     	;# 
   156     001C                     	;# 
   157     001D                     	;# 
   158     001E                     	;# 
   159     001F                     	;# 
   160     0081                     	;# 
   161     0085                     	;# 
   162     0086                     	;# 
   163     0087                     	;# 
   164     0088                     	;# 
   165     0089                     	;# 
   166     008C                     	;# 
   167     008D                     	;# 
   168     008E                     	;# 
   169     0091                     	;# 
   170     0092                     	;# 
   171     0093                     	;# 
   172     0094                     	;# 
   173     0098                     	;# 
   174     0099                     	;# 
   175     009C                     	;# 
   176     009D                     	;# 
   177     009E                     	;# 
   178     009F                     	;# 
   179     010C                     	;# 
   180     010D                     	;# 
   181     010E                     	;# 
   182     010F                     	;# 
   183     018C                     	;# 
   184     018D                     	;# 
   185                           
   186                           	psect	idataBANK0
   187     0DED                     __pidataBANK0:
   188                           
   189                           ;initializer for _bat1
   190     0DED  3442               	retlw	66
   191     0DEE  3441               	retlw	65
   192     0DEF  3454               	retlw	84
   193     0DF0  3454               	retlw	84
   194     0DF1  3420               	retlw	32
   195     0DF2  344E               	retlw	78
   196     0DF3  344F               	retlw	79
   197     0DF4  3452               	retlw	82
   198     0DF5  344D               	retlw	77
   199     0DF6  3441               	retlw	65
   200     0DF7  344C               	retlw	76
   201     0DF8  3400               	retlw	0
   202                           
   203                           ;initializer for _bat
   204     0DF9  3442               	retlw	66
   205     0DFA  3441               	retlw	65
   206     0DFB  3454               	retlw	84
   207     0DFC  3454               	retlw	84
   208     0DFD  3420               	retlw	32
   209     0DFE  344C               	retlw	76
   210     0DFF  344F               	retlw	79
   211     0E00  3457               	retlw	87
   212     0E01  3420               	retlw	32
   213     0E02  3420               	retlw	32
   214     0E03  3420               	retlw	32
   215     0E04  3420               	retlw	32
   216                           
   217                           ;initializer for _dot
   218     0E05  342E               	retlw	46
   219                           
   220                           	psect	idataBANK1
   221     0E20                     __pidataBANK1:
   222                           
   223                           ;initializer for _array
   224     0E20  3442               	retlw	66
   225     0E21  3441               	retlw	65
   226     0E22  3454               	retlw	84
   227     0E23  3454               	retlw	84
   228     0E24  3420               	retlw	32
   229     0E25  3456               	retlw	86
   230     0E26  344F               	retlw	79
   231     0E27  344C               	retlw	76
   232     0E28  3454               	retlw	84
   233     0E29  343A               	retlw	58
   234     0E2A  3420               	retlw	32
   235     0E2B  3420               	retlw	32
   236     0E2C  3420               	retlw	32
   237     0E2D  3420               	retlw	32
   238     0E2E  3456               	retlw	86
   239     0E2F  3400               	retlw	0
   240     0E30  3400               	retlw	0
   241     0E31  3400               	retlw	0
   242     0E32  3400               	retlw	0
   243     0E33  3400               	retlw	0
   244     0E34  3400               	retlw	0
   245     0E35  3400               	retlw	0
   246     0E36  3400               	retlw	0
   247     0E37  3400               	retlw	0
   248     0E38  3400               	retlw	0
   249     0E39  3400               	retlw	0
   250     0E3A  3400               	retlw	0
   251     0E3B  3400               	retlw	0
   252     0E3C  3400               	retlw	0
   253     0E3D  3400               	retlw	0
   254                           
   255                           ;initializer for _bat2
   256     0E3E  3442               	retlw	66
   257     0E3F  3441               	retlw	65
   258     0E40  3454               	retlw	84
   259     0E41  3454               	retlw	84
   260     0E42  3420               	retlw	32
   261     0E43  3448               	retlw	72
   262     0E44  3449               	retlw	73
   263     0E45  3447               	retlw	71
   264     0E46  3448               	retlw	72
   265     0E47  3420               	retlw	32
   266     0E48  3420               	retlw	32
   267     0E49  3420               	retlw	32
   268     0008                     _PORTD	set	8
   269     0007                     _PORTC	set	7
   270     0006                     _PORTB	set	6
   271     0081                     _OPTION_REG	set	129
   272     0086                     _TRISB	set	134
   273     0088                     _TRISD	set	136
   274     0087                     _TRISC	set	135
   275                           
   276                           	psect	cinit
   277     07D9                     start_initialization:	
   278                           ; #config settings
   279                           
   280     07D9                     __initialization:
   281                           
   282                           ; Initialize objects allocated to BANK1
   283     07D9  1383               	bcf	3,7	;select IRP bank0
   284     07DA  30CA               	movlw	low (__pdataBANK1+42)
   285     07DB  00FD               	movwf	btemp+-1
   286     07DC  300E               	movlw	high __pidataBANK1
   287     07DD  00FE               	movwf	btemp
   288     07DE  3020               	movlw	low __pidataBANK1
   289     07DF  00FF               	movwf	btemp+1
   290     07E0  30A0               	movlw	low __pdataBANK1
   291     07E1  0084               	movwf	4
   292     07E2  120A  158A  25C7  120A  118A  	fcall	init_ram0
   293                           
   294                           ; Initialize objects allocated to BANK0
   295     07E7  3055               	movlw	low (__pdataBANK0+25)
   296     07E8  00FD               	movwf	btemp+-1
   297     07E9  300D               	movlw	high __pidataBANK0
   298     07EA  00FE               	movwf	btemp
   299     07EB  30ED               	movlw	low __pidataBANK0
   300     07EC  00FF               	movwf	btemp+1
   301     07ED  303C               	movlw	low __pdataBANK0
   302     07EE  0084               	movwf	4
   303     07EF  120A  158A  25C7  120A  118A  	fcall	init_ram0
   304                           
   305                           ; Clear objects allocated to BANK0
   306     07F4  3055               	movlw	low __pbssBANK0
   307     07F5  0084               	movwf	4
   308     07F6  3068               	movlw	low (__pbssBANK0+19)
   309     07F7  120A  158A  25AD  120A  118A  	fcall	clear_ram0
   310     07FC                     end_of_initialization:	
   311                           ;End of C runtime variable initialization code
   312                           
   313     07FC                     __end_of__initialization:
   314     07FC  0183               	clrf	3
   315     07FD  120A  118A  2806   	ljmp	_main	;jump to C main() function
   316                           
   317                           	psect	bssBANK0
   318     0055                     __pbssBANK0:
   319     0055                     _w:
   320     0055                     	ds	4
   321     0059                     _v:
   322     0059                     	ds	4
   323     005D                     _de:
   324     005D                     	ds	2
   325     005F                     _j:
   326     005F                     	ds	2
   327     0061                     _d1:
   328     0061                     	ds	2
   329     0063                     _d2:
   330     0063                     	ds	2
   331     0065                     _value:
   332     0065                     	ds	1
   333     0066                     _x:
   334     0066                     	ds	1
   335     0067                     _a:
   336     0067                     	ds	1
   337                           
   338                           	psect	dataBANK0
   339     003C                     __pdataBANK0:
   340     003C                     _bat1:
   341     003C                     	ds	12
   342     0048                     _bat:
   343     0048                     	ds	12
   344     0054                     _dot:
   345     0054                     	ds	1
   346                           
   347                           	psect	dataBANK1
   348     00A0                     __pdataBANK1:
   349     00A0                     _array:
   350     00A0                     	ds	30
   351     00BE                     _bat2:
   352     00BE                     	ds	12
   353                           
   354                           	psect	inittext
   355     0DC3                     init_fetch0:	
   356                           ;	Called with low address in FSR and high address in W
   357                           
   358     0DC3  087E               	movf	btemp,w
   359     0DC4  008A               	movwf	10
   360     0DC5  087F               	movf	btemp+1,w
   361     0DC6  0082               	movwf	2
   362     0DC7                     init_ram0:	
   363                           ;Called with:
   364                           ;	high address of idata address in btemp 
   365                           ;	low address of idata address in btemp+1 
   366                           ;	low address of data in FSR
   367                           ;	high address + 1 of data in btemp-1
   368                           
   369     0DC7  120A  158A  25C3  120A  158A  	fcall	init_fetch0
   370     0DCC  0080               	movwf	0
   371     0DCD  0A84               	incf	4,f
   372     0DCE  0804               	movf	4,w
   373     0DCF  067D               	xorwf	btemp+-1,w
   374     0DD0  1903               	btfsc	3,2
   375     0DD1  3400               	retlw	0
   376     0DD2  0AFF               	incf	btemp+1,f
   377     0DD3  1903               	btfsc	3,2
   378     0DD4  0AFE               	incf	btemp,f
   379     0DD5  2DC7               	goto	init_ram0
   380                           
   381                           	psect	clrtext
   382     0DAD                     clear_ram0:	
   383                           ;	Called with FSR containing the base address, and
   384                           ;	W with the last address+1
   385                           
   386     0DAD  0064               	clrwdt	;clear the watchdog before getting into this loop
   387     0DAE                     clrloop0:
   388     0DAE  0180               	clrf	0	;clear RAM location pointed to by FSR
   389     0DAF  0A84               	incf	4,f	;increment pointer
   390     0DB0  0604               	xorwf	4,w	;XOR with final address
   391     0DB1  1903               	btfsc	3,2	;have we reached the end yet?
   392     0DB2  3400               	retlw	0	;all done for this memory range, return
   393     0DB3  0604               	xorwf	4,w	;XOR again to restore value
   394     0DB4  2DAE               	goto	clrloop0	;do the next byte
   395                           
   396                           	psect	cstackCOMMON
   397     0070                     __pcstackCOMMON:
   398     0070                     ?___flge:
   399     0070                     ?_init:	
   400                           ; 1 bit 
   401                           
   402     0070                     ?_keyscan:	
   403                           ; 1 bytes @ 0x0
   404                           
   405     0070                     ?_lcdcmd:	
   406                           ; 1 bytes @ 0x0
   407                           
   408     0070                     ??_lcdcmd:	
   409                           ; 1 bytes @ 0x0
   410                           
   411     0070                     ?_lcddata:	
   412                           ; 1 bytes @ 0x0
   413                           
   414     0070                     ??_lcddata:	
   415                           ; 1 bytes @ 0x0
   416                           
   417     0070                     ?_indicator:	
   418                           ; 1 bytes @ 0x0
   419                           
   420     0070                     ?_main:	
   421                           ; 1 bytes @ 0x0
   422                           
   423     0070                     ?___awmod:	
   424                           ; 1 bytes @ 0x0
   425                           
   426     0070                     ?___xxtofl:	
   427                           ; 2 bytes @ 0x0
   428                           
   429     0070                     ___awmod@divisor:	
   430                           ; 4 bytes @ 0x0
   431                           
   432     0070                     ___flge@ff1:	
   433                           ; 2 bytes @ 0x0
   434                           
   435     0070                     ___xxtofl@val:	
   436                           ; 4 bytes @ 0x0
   437                           
   438                           
   439                           ; 4 bytes @ 0x0
   440     0070                     	ds	2
   441     0072                     lcdcmd@i:
   442     0072                     lcddata@i:	
   443                           ; 1 bytes @ 0x2
   444                           
   445     0072                     ___awmod@dividend:	
   446                           ; 1 bytes @ 0x2
   447                           
   448                           
   449                           ; 2 bytes @ 0x2
   450     0072                     	ds	1
   451     0073                     ??_init:
   452     0073                     ?_lcddec:	
   453                           ; 1 bytes @ 0x3
   454                           
   455     0073                     lcddec@i:	
   456                           ; 1 bytes @ 0x3
   457                           
   458                           
   459                           ; 2 bytes @ 0x3
   460     0073                     	ds	1
   461     0074                     ??___awmod:
   462     0074                     ??___xxtofl:	
   463                           ; 1 bytes @ 0x4
   464                           
   465     0074                     ___awmod@counter:	
   466                           ; 1 bytes @ 0x4
   467                           
   468     0074                     ___flge@ff2:	
   469                           ; 1 bytes @ 0x4
   470                           
   471                           
   472                           ; 4 bytes @ 0x4
   473     0074                     	ds	1
   474     0075                     ??_lcddec:
   475     0075                     ___awmod@sign:	
   476                           ; 1 bytes @ 0x5
   477                           
   478                           
   479                           ; 1 bytes @ 0x5
   480     0075                     	ds	1
   481     0076                     ?___awdiv:
   482     0076                     ___awdiv@divisor:	
   483                           ; 2 bytes @ 0x6
   484                           
   485                           
   486                           ; 2 bytes @ 0x6
   487     0076                     	ds	2
   488     0078                     ??___flge:
   489     0078                     ___xxtofl@sign:	
   490                           ; 1 bytes @ 0x8
   491                           
   492     0078                     ___awdiv@dividend:	
   493                           ; 1 bytes @ 0x8
   494                           
   495                           
   496                           ; 2 bytes @ 0x8
   497     0078                     	ds	1
   498     0079                     ___xxtofl@exp:
   499                           
   500                           ; 1 bytes @ 0x9
   501     0079                     	ds	1
   502     007A                     ??___awdiv:
   503     007A                     ___awdiv@counter:	
   504                           ; 1 bytes @ 0xA
   505                           
   506     007A                     ___xxtofl@arg:	
   507                           ; 1 bytes @ 0xA
   508                           
   509                           
   510                           ; 4 bytes @ 0xA
   511     007A                     	ds	1
   512     007B                     ___awdiv@sign:
   513                           
   514                           ; 1 bytes @ 0xB
   515     007B                     	ds	1
   516     007C                     ___awdiv@quotient:
   517                           
   518                           ; 2 bytes @ 0xC
   519     007C                     	ds	2
   520     007E                     ??_indicator:
   521     007E                     ??_main:	
   522                           ; 1 bytes @ 0xE
   523                           
   524                           
   525                           	psect	cstackBANK0
   526     0020                     __pcstackBANK0:	
   527                           ; 1 bytes @ 0xE
   528                           
   529     0020                     ?_lcdoutput:
   530     0020                     ?___fladd:	
   531                           ; 1 bytes @ 0x0
   532                           
   533     0020                     ?___fldiv:	
   534                           ; 4 bytes @ 0x0
   535                           
   536     0020                     lcdoutput@i:	
   537                           ; 4 bytes @ 0x0
   538                           
   539     0020                     ___fladd@b:	
   540                           ; 2 bytes @ 0x0
   541                           
   542     0020                     ___fldiv@a:	
   543                           ; 4 bytes @ 0x0
   544                           
   545                           
   546                           ; 4 bytes @ 0x0
   547     0020                     	ds	2
   548     0022                     ??_lcdoutput:
   549                           
   550                           ; 1 bytes @ 0x2
   551     0022                     	ds	2
   552     0024                     ___fladd@a:
   553     0024                     ___fldiv@b:	
   554                           ; 4 bytes @ 0x4
   555                           
   556                           
   557                           ; 4 bytes @ 0x4
   558     0024                     	ds	4
   559     0028                     ??___fladd:
   560     0028                     ??___fldiv:	
   561                           ; 1 bytes @ 0x8
   562                           
   563                           
   564                           ; 1 bytes @ 0x8
   565     0028                     	ds	5
   566     002D                     ___fldiv@rem:
   567                           
   568                           ; 4 bytes @ 0xD
   569     002D                     	ds	3
   570     0030                     ___fladd@signs:
   571                           
   572                           ; 1 bytes @ 0x10
   573     0030                     	ds	1
   574     0031                     ___fladd@aexp:
   575     0031                     ___fldiv@sign:	
   576                           ; 1 bytes @ 0x11
   577                           
   578                           
   579                           ; 1 bytes @ 0x11
   580     0031                     	ds	1
   581     0032                     ___fladd@bexp:
   582     0032                     ___fldiv@new_exp:	
   583                           ; 1 bytes @ 0x12
   584                           
   585                           
   586                           ; 2 bytes @ 0x12
   587     0032                     	ds	1
   588     0033                     ___fladd@grs:
   589                           
   590                           ; 1 bytes @ 0x13
   591     0033                     	ds	1
   592     0034                     ___fldiv@grs:
   593                           
   594                           ; 4 bytes @ 0x14
   595     0034                     	ds	4
   596     0038                     ___fldiv@bexp:
   597                           
   598                           ; 1 bytes @ 0x18
   599     0038                     	ds	1
   600     0039                     ___fldiv@aexp:
   601                           
   602                           ; 1 bytes @ 0x19
   603     0039                     	ds	1
   604     003A                     ??_keyscan:
   605                           
   606                           ; 1 bytes @ 0x1A
   607     003A                     	ds	2
   608                           
   609                           	psect	maintext
   610     0006                     __pmaintext:	
   611 ;;
   612 ;;Main: autosize = 0, tempsize = 0, incstack = 0, save=0
   613 ;;
   614 ;; *************** function _main *****************
   615 ;; Defined at:
   616 ;;		line 35 in file "task2.c"
   617 ;; Parameters:    Size  Location     Type
   618 ;;		None
   619 ;; Auto vars:     Size  Location     Type
   620 ;;		None
   621 ;; Return value:  Size  Location     Type
   622 ;;                  1    wreg      void 
   623 ;; Registers used:
   624 ;;		wreg, fsr0l, fsr0h, status,2, status,0, btemp+1, pclath, cstack
   625 ;; Tracked objects:
   626 ;;		On entry : B00/0
   627 ;;		On exit  : 0/0
   628 ;;		Unchanged: 0/0
   629 ;; Data sizes:     COMMON   BANK0   BANK1   BANK3   BANK2
   630 ;;      Params:         0       0       0       0       0
   631 ;;      Locals:         0       0       0       0       0
   632 ;;      Temps:          0       0       0       0       0
   633 ;;      Totals:         0       0       0       0       0
   634 ;;Total ram usage:        0 bytes
   635 ;; Hardware stack levels required when called: 3
   636 ;; This function calls:
   637 ;;		_init
   638 ;;		_keyscan
   639 ;; This function is called by:
   640 ;;		Startup code after reset
   641 ;; This function uses a non-reentrant model
   642 ;;
   643                           
   644     0006                     _main:	
   645                           ;psect for function _main
   646                           
   647     0006                     l2131:	
   648                           ;incstack = 0
   649                           ; Regs used in _main: [wreg-fsr0h+status,2+status,0+btemp+1+pclath+cstack]
   650                           
   651                           
   652                           ;task2.c: 37:     init();
   653     0006  120A  118A  2014  120A  118A  	fcall	_init
   654     000B                     l2133:
   655                           
   656                           ;task2.c: 39:     {;task2.c: 40:         keyscan();
   657     000B  120A  118A  2230  120A  118A  	fcall	_keyscan
   658     0010  280B               	goto	l2133
   659     0011  120A  118A  2800   	ljmp	start
   660     0014                     __end_of_main:
   661                           
   662                           	psect	text1
   663     0230                     __ptext1:	
   664 ;; *************** function _keyscan *****************
   665 ;; Defined at:
   666 ;;		line 59 in file "task2.c"
   667 ;; Parameters:    Size  Location     Type
   668 ;;		None
   669 ;; Auto vars:     Size  Location     Type
   670 ;;		None
   671 ;; Return value:  Size  Location     Type
   672 ;;                  1    wreg      void 
   673 ;; Registers used:
   674 ;;		wreg, fsr0l, fsr0h, status,2, status,0, btemp+1, pclath, cstack
   675 ;; Tracked objects:
   676 ;;		On entry : 0/0
   677 ;;		On exit  : 0/0
   678 ;;		Unchanged: 0/0
   679 ;; Data sizes:     COMMON   BANK0   BANK1   BANK3   BANK2
   680 ;;      Params:         0       0       0       0       0
   681 ;;      Locals:         0       0       0       0       0
   682 ;;      Temps:          0       2       0       0       0
   683 ;;      Totals:         0       2       0       0       0
   684 ;;Total ram usage:        2 bytes
   685 ;; Hardware stack levels used: 1
   686 ;; Hardware stack levels required when called: 2
   687 ;; This function calls:
   688 ;;		_indicator
   689 ;;		_lcdcmd
   690 ;;		_lcddata
   691 ;;		_lcddec
   692 ;;		_lcdoutput
   693 ;; This function is called by:
   694 ;;		_main
   695 ;; This function uses a non-reentrant model
   696 ;;
   697                           
   698     0230                     _keyscan:	
   699                           ;psect for function _keyscan
   700                           
   701     0230                     l2001:	
   702                           ;incstack = 0
   703                           ; Regs used in _keyscan: [wreg-fsr0h+status,2+status,0+btemp+1+pclath+cstack]
   704                           
   705                           
   706                           ;task2.c: 61:     value=PORTB&=0xF0;
   707     0230  30F0               	movlw	240
   708     0231  00FF               	movwf	btemp+1
   709     0232  087F               	movf	btemp+1,w
   710     0233  1283               	bcf	3,5	;RP0=0, select bank0
   711     0234  1303               	bcf	3,6	;RP1=0, select bank0
   712     0235  0586               	andwf	6,f	;volatile
   713     0236  0806               	movf	6,w	;volatile
   714     0237  00E5               	movwf	_value
   715                           
   716                           ;task2.c: 62:     switch(value)
   717     0238  2B9B               	goto	l2125
   718     0239                     l2003:
   719                           
   720                           ;task2.c: 65:             j=20;
   721     0239  3014               	movlw	20
   722     023A  00DF               	movwf	_j
   723     023B  3000               	movlw	0
   724     023C  00E0               	movwf	_j+1
   725     023D                     l2005:
   726                           
   727                           ;task2.c: 66:             lcdcmd(0x80);
   728     023D  3080               	movlw	128
   729     023E  120A  158A  2606  120A  118A  	fcall	_lcdcmd
   730     0243                     l2007:
   731                           
   732                           ;task2.c: 67:             lcdcmd(0x01);
   733     0243  3001               	movlw	1
   734     0244  120A  158A  2606  120A  118A  	fcall	_lcdcmd
   735     0249                     l2009:
   736                           
   737                           ;task2.c: 68:             for(x=0;x<10;x++)
   738     0249  1283               	bcf	3,5	;RP0=0, select bank0
   739     024A  1303               	bcf	3,6	;RP1=0, select bank0
   740     024B  01E6               	clrf	_x
   741     024C                     l2015:
   742                           
   743                           ;task2.c: 69:             {;task2.c: 70:                 lcddata(array[x]);
   744     024C  0866               	movf	_x,w
   745     024D  3EA0               	addlw	(low (_array| 0))& (0+255)
   746     024E  0084               	movwf	4
   747     024F  1383               	bcf	3,7	;select IRP bank1
   748     0250  0800               	movf	0,w
   749     0251  120A  158A  25D6  120A  118A  	fcall	_lcddata
   750     0256                     l2017:
   751                           
   752                           ;task2.c: 71:             }
   753     0256  3001               	movlw	1
   754     0257  00FF               	movwf	btemp+1
   755     0258  087F               	movf	btemp+1,w
   756     0259  1283               	bcf	3,5	;RP0=0, select bank0
   757     025A  1303               	bcf	3,6	;RP1=0, select bank0
   758     025B  07E6               	addwf	_x,f
   759     025C                     l2019:
   760     025C  300A               	movlw	10
   761     025D  0266               	subwf	_x,w
   762     025E  1C03               	skipc
   763     025F  2A61               	goto	u2531
   764     0260  2A62               	goto	u2530
   765     0261                     u2531:
   766     0261  2A4C               	goto	l2015
   767     0262                     u2530:
   768     0262                     l2021:
   769                           
   770                           ;task2.c: 72:             lcdcmd(0x8E);
   771     0262  308E               	movlw	142
   772     0263  120A  158A  2606  120A  118A  	fcall	_lcdcmd
   773     0268                     l2023:
   774                           
   775                           ;task2.c: 73:             for(x=14;x<15;x++)
   776     0268  300E               	movlw	14
   777     0269  1283               	bcf	3,5	;RP0=0, select bank0
   778     026A  1303               	bcf	3,6	;RP1=0, select bank0
   779     026B  00E6               	movwf	_x
   780     026C                     l2029:
   781                           
   782                           ;task2.c: 74:             {;task2.c: 75:                 lcddata(array[x]);
   783     026C  0866               	movf	_x,w
   784     026D  3EA0               	addlw	(low (_array| 0))& (0+255)
   785     026E  0084               	movwf	4
   786     026F  1383               	bcf	3,7	;select IRP bank1
   787     0270  0800               	movf	0,w
   788     0271  120A  158A  25D6  120A  118A  	fcall	_lcddata
   789     0276                     l2031:
   790                           
   791                           ;task2.c: 76:             }
   792     0276  3001               	movlw	1
   793     0277  00FF               	movwf	btemp+1
   794     0278  087F               	movf	btemp+1,w
   795     0279  1283               	bcf	3,5	;RP0=0, select bank0
   796     027A  1303               	bcf	3,6	;RP1=0, select bank0
   797     027B  07E6               	addwf	_x,f
   798     027C                     l2033:
   799     027C  300F               	movlw	15
   800     027D  0266               	subwf	_x,w
   801     027E  1C03               	skipc
   802     027F  2A81               	goto	u2541
   803     0280  2A82               	goto	u2540
   804     0281                     u2541:
   805     0281  2A6C               	goto	l2029
   806     0282                     u2540:
   807     0282                     l2035:
   808                           
   809                           ;task2.c: 77:             lcdoutput(j);
   810     0282  0860               	movf	_j+1,w
   811     0283  00A1               	movwf	lcdoutput@i+1
   812     0284  085F               	movf	_j,w
   813     0285  00A0               	movwf	lcdoutput@i
   814     0286  120A  158A  264A  120A  118A  	fcall	_lcdoutput
   815                           
   816                           ;task2.c: 78:             lcddata(dot);
   817     028B  302E               	movlw	46
   818     028C  120A  158A  25D6  120A  118A  	fcall	_lcddata
   819                           
   820                           ;task2.c: 79:             lcddec(de);
   821     0291  1283               	bcf	3,5	;RP0=0, select bank0
   822     0292  1303               	bcf	3,6	;RP1=0, select bank0
   823     0293  085E               	movf	_de+1,w
   824     0294  00F4               	movwf	lcddec@i+1
   825     0295  085D               	movf	_de,w
   826     0296  00F3               	movwf	lcddec@i
   827     0297  120A  158A  25B5  120A  118A  	fcall	_lcddec
   828     029C                     l2037:
   829                           
   830                           ;task2.c: 80:             indicator();
   831     029C  120A  118A  2107  120A  118A  	fcall	_indicator
   832     02A1                     l2039:
   833                           
   834                           ;task2.c: 81:             _delay((unsigned long)((50)*(6000000/4000.0)));
   835     02A1  3062               	movlw	98
   836     02A2  1283               	bcf	3,5	;RP0=0, select bank0
   837     02A3  1303               	bcf	3,6	;RP1=0, select bank0
   838     02A4  00BB               	movwf	??_keyscan+1
   839     02A5  3065               	movlw	101
   840     02A6  00BA               	movwf	??_keyscan
   841     02A7                     u2617:
   842     02A7  0BBA               	decfsz	??_keyscan,f
   843     02A8  2AA7               	goto	u2617
   844     02A9  0BBB               	decfsz	??_keyscan+1,f
   845     02AA  2AA7               	goto	u2617
   846                           
   847                           ;task2.c: 82:             break;
   848     02AB  2BB1               	goto	l90
   849     02AC                     l2041:
   850                           
   851                           ;task2.c: 84:             if(j==22&&de==5)
   852     02AC  3016               	movlw	22
   853     02AD  065F               	xorwf	_j,w
   854     02AE  0460               	iorwf	_j+1,w
   855     02AF  1D03               	btfss	3,2
   856     02B0  2AB2               	goto	u2551
   857     02B1  2AB3               	goto	u2550
   858     02B2                     u2551:
   859     02B2  2ADD               	goto	l2055
   860     02B3                     u2550:
   861     02B3                     l2043:
   862     02B3  3005               	movlw	5
   863     02B4  065D               	xorwf	_de,w
   864     02B5  045E               	iorwf	_de+1,w
   865     02B6  1D03               	btfss	3,2
   866     02B7  2AB9               	goto	u2561
   867     02B8  2ABA               	goto	u2560
   868     02B9                     u2561:
   869     02B9  2ADD               	goto	l2055
   870     02BA                     u2560:
   871     02BA                     l2045:
   872                           
   873                           ;task2.c: 85:             {;task2.c: 86:                 j=22;
   874     02BA  3016               	movlw	22
   875     02BB  00DF               	movwf	_j
   876     02BC  3000               	movlw	0
   877     02BD  00E0               	movwf	_j+1
   878                           
   879                           ;task2.c: 87:                 de=5;
   880     02BE  3005               	movlw	5
   881     02BF  00DD               	movwf	_de
   882     02C0  3000               	movlw	0
   883     02C1  00DE               	movwf	_de+1
   884     02C2                     l2047:
   885                           
   886                           ;task2.c: 88:                 lcdoutput(j);
   887     02C2  0860               	movf	_j+1,w
   888     02C3  00A1               	movwf	lcdoutput@i+1
   889     02C4  085F               	movf	_j,w
   890     02C5  00A0               	movwf	lcdoutput@i
   891     02C6  120A  158A  264A  120A  118A  	fcall	_lcdoutput
   892     02CB                     l2049:
   893                           
   894                           ;task2.c: 89:                 lcddata(dot);
   895     02CB  302E               	movlw	46
   896     02CC  120A  158A  25D6  120A  118A  	fcall	_lcddata
   897     02D1                     l2051:
   898                           
   899                           ;task2.c: 90:                 lcddec(de);
   900     02D1  1283               	bcf	3,5	;RP0=0, select bank0
   901     02D2  1303               	bcf	3,6	;RP1=0, select bank0
   902     02D3  085E               	movf	_de+1,w
   903     02D4  00F4               	movwf	lcddec@i+1
   904     02D5  085D               	movf	_de,w
   905     02D6  00F3               	movwf	lcddec@i
   906     02D7  120A  158A  25B5  120A  118A  	fcall	_lcddec
   907     02DC  2A9C               	goto	l2037
   908     02DD                     l2055:
   909                           
   910                           ;task2.c: 94:             {;task2.c: 95:                 de++;
   911     02DD  3001               	movlw	1
   912     02DE  07DD               	addwf	_de,f
   913     02DF  1803               	skipnc
   914     02E0  0ADE               	incf	_de+1,f
   915     02E1  3000               	movlw	0
   916     02E2  07DE               	addwf	_de+1,f
   917     02E3                     l2057:
   918                           
   919                           ;task2.c: 96:                 if(de>=10)
   920     02E3  085E               	movf	_de+1,w
   921     02E4  3A80               	xorlw	128
   922     02E5  00FF               	movwf	btemp+1
   923     02E6  3080               	movlw	128
   924     02E7  027F               	subwf	btemp+1,w
   925     02E8  1D03               	skipz
   926     02E9  2AEC               	goto	u2575
   927     02EA  300A               	movlw	10
   928     02EB  025D               	subwf	_de,w
   929     02EC                     u2575:
   930     02EC  1C03               	skipc
   931     02ED  2AEF               	goto	u2571
   932     02EE  2AF0               	goto	u2570
   933     02EF                     u2571:
   934     02EF  2B0A               	goto	l2071
   935     02F0                     u2570:
   936     02F0                     l2059:
   937                           
   938                           ;task2.c: 97:                 {;task2.c: 98:                     j++;
   939     02F0  3001               	movlw	1
   940     02F1  1283               	bcf	3,5	;RP0=0, select bank0
   941     02F2  1303               	bcf	3,6	;RP1=0, select bank0
   942     02F3  07DF               	addwf	_j,f
   943     02F4  1803               	skipnc
   944     02F5  0AE0               	incf	_j+1,f
   945     02F6  3000               	movlw	0
   946     02F7  07E0               	addwf	_j+1,f
   947     02F8                     l2061:
   948                           
   949                           ;task2.c: 99:                     de=0;
   950     02F8  01DD               	clrf	_de
   951     02F9  01DE               	clrf	_de+1
   952     02FA                     l2063:
   953                           
   954                           ;task2.c: 100:                     lcdoutput(j);
   955     02FA  0860               	movf	_j+1,w
   956     02FB  00A1               	movwf	lcdoutput@i+1
   957     02FC  085F               	movf	_j,w
   958     02FD  00A0               	movwf	lcdoutput@i
   959     02FE  120A  158A  264A  120A  118A  	fcall	_lcdoutput
   960     0303                     l2065:
   961                           
   962                           ;task2.c: 101:                     lcddata(dot);
   963     0303  302E               	movlw	46
   964     0304  120A  158A  25D6  120A  118A  	fcall	_lcddata
   965     0309  2AD1               	goto	l2051
   966     030A                     l2071:
   967                           
   968                           ;task2.c: 106:                 {;task2.c: 107:                     lcdoutput(j);
   969     030A  1283               	bcf	3,5	;RP0=0, select bank0
   970     030B  1303               	bcf	3,6	;RP1=0, select bank0
   971     030C  0860               	movf	_j+1,w
   972     030D  00A1               	movwf	lcdoutput@i+1
   973     030E  085F               	movf	_j,w
   974     030F  00A0               	movwf	lcdoutput@i
   975     0310  120A  158A  264A  120A  118A  	fcall	_lcdoutput
   976                           
   977                           ;task2.c: 108:                     lcddata(dot);
   978     0315  302E               	movlw	46
   979     0316  120A  158A  25D6  120A  118A  	fcall	_lcddata
   980                           
   981                           ;task2.c: 109:                     lcddec(de);
   982     031B  1283               	bcf	3,5	;RP0=0, select bank0
   983     031C  1303               	bcf	3,6	;RP1=0, select bank0
   984     031D  085E               	movf	_de+1,w
   985     031E  00F4               	movwf	lcddec@i+1
   986     031F  085D               	movf	_de,w
   987     0320  00F3               	movwf	lcddec@i
   988     0321  120A  158A  25B5  120A  118A  	fcall	_lcddec
   989     0326  2A9C               	goto	l2037
   990     0327                     l2077:
   991                           
   992                           ;task2.c: 116:             if(j==15&&de==0)
   993     0327  300F               	movlw	15
   994     0328  065F               	xorwf	_j,w
   995     0329  0460               	iorwf	_j+1,w
   996     032A  1D03               	btfss	3,2
   997     032B  2B2D               	goto	u2581
   998     032C  2B2E               	goto	u2580
   999     032D                     u2581:
  1000     032D  2B4A               	goto	l2093
  1001     032E                     u2580:
  1002     032E                     l2079:
  1003     032E  085D               	movf	_de,w
  1004     032F  045E               	iorwf	_de+1,w
  1005     0330  1D03               	btfss	3,2
  1006     0331  2B33               	goto	u2591
  1007     0332  2B34               	goto	u2590
  1008     0333                     u2591:
  1009     0333  2B4A               	goto	l2093
  1010     0334                     u2590:
  1011     0334                     l2081:
  1012                           
  1013                           ;task2.c: 117:             {;task2.c: 118:                 j=15;
  1014     0334  300F               	movlw	15
  1015     0335  00DF               	movwf	_j
  1016     0336  3000               	movlw	0
  1017     0337  00E0               	movwf	_j+1
  1018     0338                     l2083:
  1019                           
  1020                           ;task2.c: 119:                 de=0;
  1021     0338  01DD               	clrf	_de
  1022     0339  01DE               	clrf	_de+1
  1023     033A                     l2085:
  1024                           
  1025                           ;task2.c: 120:                 lcdoutput(j);
  1026     033A  0860               	movf	_j+1,w
  1027     033B  00A1               	movwf	lcdoutput@i+1
  1028     033C  085F               	movf	_j,w
  1029     033D  00A0               	movwf	lcdoutput@i
  1030     033E  120A  158A  264A  120A  118A  	fcall	_lcdoutput
  1031     0343                     l2087:
  1032                           
  1033                           ;task2.c: 121:                 lcddata(dot);
  1034     0343  302E               	movlw	46
  1035     0344  120A  158A  25D6  120A  118A  	fcall	_lcddata
  1036     0349  2AD1               	goto	l2051
  1037     034A                     l2093:
  1038                           
  1039                           ;task2.c: 126:             {;task2.c: 127:                 de--;
  1040     034A  30FF               	movlw	255
  1041     034B  07DD               	addwf	_de,f
  1042     034C  1803               	skipnc
  1043     034D  0ADE               	incf	_de+1,f
  1044     034E  30FF               	movlw	255
  1045     034F  07DE               	addwf	_de+1,f
  1046     0350                     l2095:
  1047                           
  1048                           ;task2.c: 128:                 if(de<0)
  1049     0350  1FDE               	btfss	_de+1,7
  1050     0351  2B53               	goto	u2601
  1051     0352  2B54               	goto	u2600
  1052     0353                     u2601:
  1053     0353  2B6E               	goto	l2107
  1054     0354                     u2600:
  1055     0354                     l2097:
  1056                           
  1057                           ;task2.c: 129:                 {;task2.c: 130:                     j--;
  1058     0354  3001               	movlw	1
  1059     0355  02DF               	subwf	_j,f
  1060     0356  3000               	movlw	0
  1061     0357  1C03               	skipc
  1062     0358  03E0               	decf	_j+1,f
  1063     0359  02E0               	subwf	_j+1,f
  1064                           
  1065                           ;task2.c: 131:                     de=9;
  1066     035A  3009               	movlw	9
  1067     035B  00DD               	movwf	_de
  1068     035C  3000               	movlw	0
  1069     035D  00DE               	movwf	_de+1
  1070     035E                     l2099:
  1071                           
  1072                           ;task2.c: 132:                     lcdoutput(j);
  1073     035E  0860               	movf	_j+1,w
  1074     035F  00A1               	movwf	lcdoutput@i+1
  1075     0360  085F               	movf	_j,w
  1076     0361  00A0               	movwf	lcdoutput@i
  1077     0362  120A  158A  264A  120A  118A  	fcall	_lcdoutput
  1078     0367                     l2101:
  1079                           
  1080                           ;task2.c: 133:                     lcddata(dot);
  1081     0367  302E               	movlw	46
  1082     0368  120A  158A  25D6  120A  118A  	fcall	_lcddata
  1083     036D  2AD1               	goto	l2051
  1084     036E                     l2107:
  1085                           
  1086                           ;task2.c: 138:                 {;task2.c: 139:                     lcdoutput(j);
  1087     036E  0860               	movf	_j+1,w
  1088     036F  00A1               	movwf	lcdoutput@i+1
  1089     0370  085F               	movf	_j,w
  1090     0371  00A0               	movwf	lcdoutput@i
  1091     0372  120A  158A  264A  120A  118A  	fcall	_lcdoutput
  1092                           
  1093                           ;task2.c: 140:                     lcddata(dot);
  1094     0377  302E               	movlw	46
  1095     0378  120A  158A  25D6  120A  118A  	fcall	_lcddata
  1096                           
  1097                           ;task2.c: 141:                     lcddec(de);
  1098     037D  1283               	bcf	3,5	;RP0=0, select bank0
  1099     037E  1303               	bcf	3,6	;RP1=0, select bank0
  1100     037F  085E               	movf	_de+1,w
  1101     0380  00F4               	movwf	lcddec@i+1
  1102     0381  085D               	movf	_de,w
  1103     0382  00F3               	movwf	lcddec@i
  1104     0383  120A  158A  25B5  120A  118A  	fcall	_lcddec
  1105     0388  2A9C               	goto	l2037
  1106     0389                     l2113:
  1107                           
  1108                           ;task2.c: 148:             j=17;
  1109     0389  3011               	movlw	17
  1110     038A  00DF               	movwf	_j
  1111     038B  3000               	movlw	0
  1112     038C  00E0               	movwf	_j+1
  1113                           
  1114                           ;task2.c: 149:             de=7;
  1115     038D  3007               	movlw	7
  1116     038E  00DD               	movwf	_de
  1117     038F  3000               	movlw	0
  1118     0390  00DE               	movwf	_de+1
  1119     0391                     l2115:
  1120                           
  1121                           ;task2.c: 150:             lcdoutput(j);
  1122     0391  0860               	movf	_j+1,w
  1123     0392  00A1               	movwf	lcdoutput@i+1
  1124     0393  085F               	movf	_j,w
  1125     0394  00A0               	movwf	lcdoutput@i
  1126     0395  120A  158A  264A  120A  118A  	fcall	_lcdoutput
  1127     039A  2AD1               	goto	l2051
  1128     039B                     l2125:
  1129     039B  0865               	movf	_value,w
  1130     039C  00BA               	movwf	??_keyscan
  1131     039D  01BB               	clrf	??_keyscan+1
  1132                           
  1133                           ; Switch on 2 bytes has been partitioned into a top level switch of size 1, and 1 sub-sw
      +                          itches
  1134                           ; Switch size 1, requested type "simple"
  1135                           ; Number of cases is 1, Range of values is 0 to 0
  1136                           ; switch strategies available:
  1137                           ; Name         Instructions Cycles
  1138                           ; simple_byte            4     3 (average)
  1139                           ; direct_byte           11     8 (fixed)
  1140                           ; jumptable            260     6 (fixed)
  1141                           ;	Chosen strategy is simple_byte
  1142     039E  083B               	movf	??_keyscan+1,w
  1143     039F  3A00               	xorlw	0	; case 0
  1144     03A0  1903               	skipnz
  1145     03A1  2BA3               	goto	l2155
  1146     03A2  2BB1               	goto	l90
  1147     03A3                     l2155:
  1148                           
  1149                           ; Switch size 1, requested type "simple"
  1150                           ; Number of cases is 4, Range of values is 112 to 224
  1151                           ; switch strategies available:
  1152                           ; Name         Instructions Cycles
  1153                           ; simple_byte           13     7 (average)
  1154                           ; jumptable            263     9 (fixed)
  1155                           ;	Chosen strategy is simple_byte
  1156     03A3  083A               	movf	??_keyscan,w
  1157     03A4  3A70               	xorlw	112	; case 112
  1158     03A5  1903               	skipnz
  1159     03A6  2B89               	goto	l2113
  1160     03A7  3AC0               	xorlw	192	; case 176
  1161     03A8  1903               	skipnz
  1162     03A9  2B27               	goto	l2077
  1163     03AA  3A60               	xorlw	96	; case 208
  1164     03AB  1903               	skipnz
  1165     03AC  2AAC               	goto	l2041
  1166     03AD  3A30               	xorlw	48	; case 224
  1167     03AE  1903               	skipnz
  1168     03AF  2A39               	goto	l2003
  1169     03B0  2BB1               	goto	l90
  1170     03B1                     l90:
  1171     03B1  0008               	return
  1172     03B2                     __end_of_keyscan:
  1173                           
  1174                           	psect	text2
  1175     0E4A                     __ptext2:	
  1176 ;; *************** function _lcdoutput *****************
  1177 ;; Defined at:
  1178 ;;		line 175 in file "task2.c"
  1179 ;; Parameters:    Size  Location     Type
  1180 ;;  i               2    0[BANK0 ] int 
  1181 ;; Auto vars:     Size  Location     Type
  1182 ;;		None
  1183 ;; Return value:  Size  Location     Type
  1184 ;;                  1    wreg      void 
  1185 ;; Registers used:
  1186 ;;		wreg, status,2, status,0, btemp+1, pclath, cstack
  1187 ;; Tracked objects:
  1188 ;;		On entry : 0/0
  1189 ;;		On exit  : 0/0
  1190 ;;		Unchanged: 0/0
  1191 ;; Data sizes:     COMMON   BANK0   BANK1   BANK3   BANK2
  1192 ;;      Params:         0       2       0       0       0
  1193 ;;      Locals:         0       0       0       0       0
  1194 ;;      Temps:          0       2       0       0       0
  1195 ;;      Totals:         0       4       0       0       0
  1196 ;;Total ram usage:        4 bytes
  1197 ;; Hardware stack levels used: 1
  1198 ;; Hardware stack levels required when called: 1
  1199 ;; This function calls:
  1200 ;;		___awdiv
  1201 ;;		___awmod
  1202 ;;		_lcdcmd
  1203 ;;		_lcddata
  1204 ;; This function is called by:
  1205 ;;		_keyscan
  1206 ;; This function uses a non-reentrant model
  1207 ;;
  1208                           
  1209     0E4A                     _lcdoutput:	
  1210                           ;psect for function _lcdoutput
  1211                           
  1212     0E4A                     l1925:	
  1213                           ;incstack = 0
  1214                           ; Regs used in _lcdoutput: [wreg+status,2+status,0+btemp+1+pclath+cstack]
  1215                           
  1216                           
  1217                           ;task2.c: 175: void lcdoutput(int i);task2.c: 176: {;task2.c: 177:     d2=(unsigned char
      +                          )((i%100)/10);
  1218     0E4A  300A               	movlw	10
  1219     0E4B  00F6               	movwf	___awdiv@divisor
  1220     0E4C  3000               	movlw	0
  1221     0E4D  00F7               	movwf	___awdiv@divisor+1
  1222     0E4E  1283               	bcf	3,5	;RP0=0, select bank0
  1223     0E4F  1303               	bcf	3,6	;RP1=0, select bank0
  1224     0E50  0821               	movf	lcdoutput@i+1,w
  1225     0E51  00F3               	movwf	___awmod@dividend+1
  1226     0E52  0820               	movf	lcdoutput@i,w
  1227     0E53  00F2               	movwf	___awmod@dividend
  1228     0E54  3064               	movlw	100
  1229     0E55  00F0               	movwf	___awmod@divisor
  1230     0E56  3000               	movlw	0
  1231     0E57  00F1               	movwf	___awmod@divisor+1
  1232     0E58  120A  158A  269E  120A  158A  	fcall	___awmod
  1233     0E5D  0871               	movf	?___awmod+1,w
  1234     0E5E  00F9               	movwf	___awdiv@dividend+1
  1235     0E5F  0870               	movf	?___awmod,w
  1236     0E60  00F8               	movwf	___awdiv@dividend
  1237     0E61  120A  158A  26F7  120A  158A  	fcall	___awdiv
  1238     0E66  0876               	movf	?___awdiv,w
  1239     0E67  1283               	bcf	3,5	;RP0=0, select bank0
  1240     0E68  1303               	bcf	3,6	;RP1=0, select bank0
  1241     0E69  00A2               	movwf	??_lcdoutput
  1242     0E6A  01A3               	clrf	??_lcdoutput+1
  1243     0E6B  0822               	movf	??_lcdoutput,w
  1244     0E6C  00E3               	movwf	_d2
  1245     0E6D  0823               	movf	??_lcdoutput+1,w
  1246     0E6E  00E4               	movwf	_d2+1
  1247                           
  1248                           ;task2.c: 178:     d1=(unsigned char)(i%10);
  1249     0E6F  300A               	movlw	10
  1250     0E70  00F0               	movwf	___awmod@divisor
  1251     0E71  3000               	movlw	0
  1252     0E72  00F1               	movwf	___awmod@divisor+1
  1253     0E73  0821               	movf	lcdoutput@i+1,w
  1254     0E74  00F3               	movwf	___awmod@dividend+1
  1255     0E75  0820               	movf	lcdoutput@i,w
  1256     0E76  00F2               	movwf	___awmod@dividend
  1257     0E77  120A  158A  269E  120A  158A  	fcall	___awmod
  1258     0E7C  0870               	movf	?___awmod,w
  1259     0E7D  1283               	bcf	3,5	;RP0=0, select bank0
  1260     0E7E  1303               	bcf	3,6	;RP1=0, select bank0
  1261     0E7F  00A2               	movwf	??_lcdoutput
  1262     0E80  01A3               	clrf	??_lcdoutput+1
  1263     0E81  0822               	movf	??_lcdoutput,w
  1264     0E82  00E1               	movwf	_d1
  1265     0E83  0823               	movf	??_lcdoutput+1,w
  1266     0E84  00E2               	movwf	_d1+1
  1267                           
  1268                           ;task2.c: 179:     lcdcmd(0x8A);
  1269     0E85  308A               	movlw	138
  1270     0E86  120A  158A  2606  120A  158A  	fcall	_lcdcmd
  1271                           
  1272                           ;task2.c: 180:     lcddata(0x30+d2);
  1273     0E8B  1283               	bcf	3,5	;RP0=0, select bank0
  1274     0E8C  1303               	bcf	3,6	;RP1=0, select bank0
  1275     0E8D  0863               	movf	_d2,w
  1276     0E8E  3E30               	addlw	48
  1277     0E8F  120A  158A  25D6  120A  158A  	fcall	_lcddata
  1278                           
  1279                           ;task2.c: 181:     lcddata(0x30+d1);
  1280     0E94  1283               	bcf	3,5	;RP0=0, select bank0
  1281     0E95  1303               	bcf	3,6	;RP1=0, select bank0
  1282     0E96  0861               	movf	_d1,w
  1283     0E97  3E30               	addlw	48
  1284     0E98  120A  158A  25D6  120A  158A  	fcall	_lcddata
  1285     0E9D                     l99:
  1286     0E9D  0008               	return
  1287     0E9E                     __end_of_lcdoutput:
  1288                           
  1289                           	psect	text3
  1290     0E9E                     __ptext3:	
  1291 ;; *************** function ___awmod *****************
  1292 ;; Defined at:
  1293 ;;		line 5 in file "C:\Program Files\Microchip\xc8\v2.45\pic\sources\c99\common\awmod.c"
  1294 ;; Parameters:    Size  Location     Type
  1295 ;;  divisor         2    0[COMMON] int 
  1296 ;;  dividend        2    2[COMMON] int 
  1297 ;; Auto vars:     Size  Location     Type
  1298 ;;  sign            1    5[COMMON] unsigned char 
  1299 ;;  counter         1    4[COMMON] unsigned char 
  1300 ;; Return value:  Size  Location     Type
  1301 ;;                  2    0[COMMON] int 
  1302 ;; Registers used:
  1303 ;;		wreg, status,2, status,0, btemp+1
  1304 ;; Tracked objects:
  1305 ;;		On entry : 0/0
  1306 ;;		On exit  : 0/0
  1307 ;;		Unchanged: 0/0
  1308 ;; Data sizes:     COMMON   BANK0   BANK1   BANK3   BANK2
  1309 ;;      Params:         4       0       0       0       0
  1310 ;;      Locals:         2       0       0       0       0
  1311 ;;      Temps:          0       0       0       0       0
  1312 ;;      Totals:         6       0       0       0       0
  1313 ;;Total ram usage:        6 bytes
  1314 ;; Hardware stack levels used: 1
  1315 ;; This function calls:
  1316 ;;		Nothing
  1317 ;; This function is called by:
  1318 ;;		_lcdoutput
  1319 ;; This function uses a non-reentrant model
  1320 ;;
  1321                           
  1322     0E9E                     ___awmod:	
  1323                           ;psect for function ___awmod
  1324                           
  1325     0E9E                     l1473:	
  1326                           ;incstack = 0
  1327                           ; Regs used in ___awmod: [wreg+status,2+status,0+btemp+1]
  1328                           
  1329     0E9E  01F5               	clrf	___awmod@sign
  1330     0E9F                     l1475:
  1331     0E9F  1FF3               	btfss	___awmod@dividend+1,7
  1332     0EA0  2EA2               	goto	u1411
  1333     0EA1  2EA3               	goto	u1410
  1334     0EA2                     u1411:
  1335     0EA2  2EAA               	goto	l1481
  1336     0EA3                     u1410:
  1337     0EA3                     l1477:
  1338     0EA3  09F2               	comf	___awmod@dividend,f
  1339     0EA4  09F3               	comf	___awmod@dividend+1,f
  1340     0EA5  0AF2               	incf	___awmod@dividend,f
  1341     0EA6  1903               	skipnz
  1342     0EA7  0AF3               	incf	___awmod@dividend+1,f
  1343     0EA8                     l1479:
  1344     0EA8  01F5               	clrf	___awmod@sign
  1345     0EA9  0AF5               	incf	___awmod@sign,f
  1346     0EAA                     l1481:
  1347     0EAA  1FF1               	btfss	___awmod@divisor+1,7
  1348     0EAB  2EAD               	goto	u1421
  1349     0EAC  2EAE               	goto	u1420
  1350     0EAD                     u1421:
  1351     0EAD  2EB3               	goto	l1485
  1352     0EAE                     u1420:
  1353     0EAE                     l1483:
  1354     0EAE  09F0               	comf	___awmod@divisor,f
  1355     0EAF  09F1               	comf	___awmod@divisor+1,f
  1356     0EB0  0AF0               	incf	___awmod@divisor,f
  1357     0EB1  1903               	skipnz
  1358     0EB2  0AF1               	incf	___awmod@divisor+1,f
  1359     0EB3                     l1485:
  1360     0EB3  0870               	movf	___awmod@divisor,w
  1361     0EB4  0471               	iorwf	___awmod@divisor+1,w
  1362     0EB5  1903               	btfsc	3,2
  1363     0EB6  2EB8               	goto	u1431
  1364     0EB7  2EB9               	goto	u1430
  1365     0EB8                     u1431:
  1366     0EB8  2EE8               	goto	l1503
  1367     0EB9                     u1430:
  1368     0EB9                     l1487:
  1369     0EB9  01F4               	clrf	___awmod@counter
  1370     0EBA  0AF4               	incf	___awmod@counter,f
  1371     0EBB  2EC7               	goto	l1493
  1372     0EBC                     l1489:
  1373     0EBC  3001               	movlw	1
  1374     0EBD                     u1445:
  1375     0EBD  1003               	clrc
  1376     0EBE  0DF0               	rlf	___awmod@divisor,f
  1377     0EBF  0DF1               	rlf	___awmod@divisor+1,f
  1378     0EC0  3EFF               	addlw	-1
  1379     0EC1  1D03               	skipz
  1380     0EC2  2EBD               	goto	u1445
  1381     0EC3                     l1491:
  1382     0EC3  3001               	movlw	1
  1383     0EC4  00FF               	movwf	btemp+1
  1384     0EC5  087F               	movf	btemp+1,w
  1385     0EC6  07F4               	addwf	___awmod@counter,f
  1386     0EC7                     l1493:
  1387     0EC7  1FF1               	btfss	___awmod@divisor+1,7
  1388     0EC8  2ECA               	goto	u1451
  1389     0EC9  2ECB               	goto	u1450
  1390     0ECA                     u1451:
  1391     0ECA  2EBC               	goto	l1489
  1392     0ECB                     u1450:
  1393     0ECB                     l1495:
  1394     0ECB  0871               	movf	___awmod@divisor+1,w
  1395     0ECC  0273               	subwf	___awmod@dividend+1,w
  1396     0ECD  1D03               	skipz
  1397     0ECE  2ED1               	goto	u1465
  1398     0ECF  0870               	movf	___awmod@divisor,w
  1399     0ED0  0272               	subwf	___awmod@dividend,w
  1400     0ED1                     u1465:
  1401     0ED1  1C03               	skipc
  1402     0ED2  2ED4               	goto	u1461
  1403     0ED3  2ED5               	goto	u1460
  1404     0ED4                     u1461:
  1405     0ED4  2EDB               	goto	l1499
  1406     0ED5                     u1460:
  1407     0ED5                     l1497:
  1408     0ED5  0870               	movf	___awmod@divisor,w
  1409     0ED6  02F2               	subwf	___awmod@dividend,f
  1410     0ED7  0871               	movf	___awmod@divisor+1,w
  1411     0ED8  1C03               	skipc
  1412     0ED9  03F3               	decf	___awmod@dividend+1,f
  1413     0EDA  02F3               	subwf	___awmod@dividend+1,f
  1414     0EDB                     l1499:
  1415     0EDB  3001               	movlw	1
  1416     0EDC                     u1475:
  1417     0EDC  1003               	clrc
  1418     0EDD  0CF1               	rrf	___awmod@divisor+1,f
  1419     0EDE  0CF0               	rrf	___awmod@divisor,f
  1420     0EDF  3EFF               	addlw	-1
  1421     0EE0  1D03               	skipz
  1422     0EE1  2EDC               	goto	u1475
  1423     0EE2                     l1501:
  1424     0EE2  3001               	movlw	1
  1425     0EE3  02F4               	subwf	___awmod@counter,f
  1426     0EE4  1D03               	btfss	3,2
  1427     0EE5  2EE7               	goto	u1481
  1428     0EE6  2EE8               	goto	u1480
  1429     0EE7                     u1481:
  1430     0EE7  2ECB               	goto	l1495
  1431     0EE8                     u1480:
  1432     0EE8                     l1503:
  1433     0EE8  0875               	movf	___awmod@sign,w
  1434     0EE9  1903               	btfsc	3,2
  1435     0EEA  2EEC               	goto	u1491
  1436     0EEB  2EED               	goto	u1490
  1437     0EEC                     u1491:
  1438     0EEC  2EF2               	goto	l1507
  1439     0EED                     u1490:
  1440     0EED                     l1505:
  1441     0EED  09F2               	comf	___awmod@dividend,f
  1442     0EEE  09F3               	comf	___awmod@dividend+1,f
  1443     0EEF  0AF2               	incf	___awmod@dividend,f
  1444     0EF0  1903               	skipnz
  1445     0EF1  0AF3               	incf	___awmod@dividend+1,f
  1446     0EF2                     l1507:
  1447     0EF2  0873               	movf	___awmod@dividend+1,w
  1448     0EF3  00F1               	movwf	?___awmod+1
  1449     0EF4  0872               	movf	___awmod@dividend,w
  1450     0EF5  00F0               	movwf	?___awmod
  1451     0EF6                     l367:
  1452     0EF6  0008               	return
  1453     0EF7                     __end_of___awmod:
  1454                           
  1455                           	psect	text4
  1456     0EF7                     __ptext4:	
  1457 ;; *************** function ___awdiv *****************
  1458 ;; Defined at:
  1459 ;;		line 5 in file "C:\Program Files\Microchip\xc8\v2.45\pic\sources\c99\common\awdiv.c"
  1460 ;; Parameters:    Size  Location     Type
  1461 ;;  divisor         2    6[COMMON] int 
  1462 ;;  dividend        2    8[COMMON] int 
  1463 ;; Auto vars:     Size  Location     Type
  1464 ;;  quotient        2   12[COMMON] int 
  1465 ;;  sign            1   11[COMMON] unsigned char 
  1466 ;;  counter         1   10[COMMON] unsigned char 
  1467 ;; Return value:  Size  Location     Type
  1468 ;;                  2    6[COMMON] int 
  1469 ;; Registers used:
  1470 ;;		wreg, status,2, status,0, btemp+1
  1471 ;; Tracked objects:
  1472 ;;		On entry : 0/0
  1473 ;;		On exit  : 0/0
  1474 ;;		Unchanged: 0/0
  1475 ;; Data sizes:     COMMON   BANK0   BANK1   BANK3   BANK2
  1476 ;;      Params:         4       0       0       0       0
  1477 ;;      Locals:         4       0       0       0       0
  1478 ;;      Temps:          0       0       0       0       0
  1479 ;;      Totals:         8       0       0       0       0
  1480 ;;Total ram usage:        8 bytes
  1481 ;; Hardware stack levels used: 1
  1482 ;; This function calls:
  1483 ;;		Nothing
  1484 ;; This function is called by:
  1485 ;;		_lcdoutput
  1486 ;; This function uses a non-reentrant model
  1487 ;;
  1488                           
  1489     0EF7                     ___awdiv:	
  1490                           ;psect for function ___awdiv
  1491                           
  1492     0EF7                     l1429:	
  1493                           ;incstack = 0
  1494                           ; Regs used in ___awdiv: [wreg+status,2+status,0+btemp+1]
  1495                           
  1496     0EF7  01FB               	clrf	___awdiv@sign
  1497     0EF8                     l1431:
  1498     0EF8  1FF7               	btfss	___awdiv@divisor+1,7
  1499     0EF9  2EFB               	goto	u1311
  1500     0EFA  2EFC               	goto	u1310
  1501     0EFB                     u1311:
  1502     0EFB  2F03               	goto	l1437
  1503     0EFC                     u1310:
  1504     0EFC                     l1433:
  1505     0EFC  09F6               	comf	___awdiv@divisor,f
  1506     0EFD  09F7               	comf	___awdiv@divisor+1,f
  1507     0EFE  0AF6               	incf	___awdiv@divisor,f
  1508     0EFF  1903               	skipnz
  1509     0F00  0AF7               	incf	___awdiv@divisor+1,f
  1510     0F01                     l1435:
  1511     0F01  01FB               	clrf	___awdiv@sign
  1512     0F02  0AFB               	incf	___awdiv@sign,f
  1513     0F03                     l1437:
  1514     0F03  1FF9               	btfss	___awdiv@dividend+1,7
  1515     0F04  2F06               	goto	u1321
  1516     0F05  2F07               	goto	u1320
  1517     0F06                     u1321:
  1518     0F06  2F10               	goto	l1443
  1519     0F07                     u1320:
  1520     0F07                     l1439:
  1521     0F07  09F8               	comf	___awdiv@dividend,f
  1522     0F08  09F9               	comf	___awdiv@dividend+1,f
  1523     0F09  0AF8               	incf	___awdiv@dividend,f
  1524     0F0A  1903               	skipnz
  1525     0F0B  0AF9               	incf	___awdiv@dividend+1,f
  1526     0F0C                     l1441:
  1527     0F0C  3001               	movlw	1
  1528     0F0D  00FF               	movwf	btemp+1
  1529     0F0E  087F               	movf	btemp+1,w
  1530     0F0F  06FB               	xorwf	___awdiv@sign,f
  1531     0F10                     l1443:
  1532     0F10  01FC               	clrf	___awdiv@quotient
  1533     0F11  01FD               	clrf	___awdiv@quotient+1
  1534     0F12                     l1445:
  1535     0F12  0876               	movf	___awdiv@divisor,w
  1536     0F13  0477               	iorwf	___awdiv@divisor+1,w
  1537     0F14  1903               	btfsc	3,2
  1538     0F15  2F17               	goto	u1331
  1539     0F16  2F18               	goto	u1330
  1540     0F17                     u1331:
  1541     0F17  2F4F               	goto	l1465
  1542     0F18                     u1330:
  1543     0F18                     l1447:
  1544     0F18  01FA               	clrf	___awdiv@counter
  1545     0F19  0AFA               	incf	___awdiv@counter,f
  1546     0F1A  2F26               	goto	l1453
  1547     0F1B                     l1449:
  1548     0F1B  3001               	movlw	1
  1549     0F1C                     u1345:
  1550     0F1C  1003               	clrc
  1551     0F1D  0DF6               	rlf	___awdiv@divisor,f
  1552     0F1E  0DF7               	rlf	___awdiv@divisor+1,f
  1553     0F1F  3EFF               	addlw	-1
  1554     0F20  1D03               	skipz
  1555     0F21  2F1C               	goto	u1345
  1556     0F22                     l1451:
  1557     0F22  3001               	movlw	1
  1558     0F23  00FF               	movwf	btemp+1
  1559     0F24  087F               	movf	btemp+1,w
  1560     0F25  07FA               	addwf	___awdiv@counter,f
  1561     0F26                     l1453:
  1562     0F26  1FF7               	btfss	___awdiv@divisor+1,7
  1563     0F27  2F29               	goto	u1351
  1564     0F28  2F2A               	goto	u1350
  1565     0F29                     u1351:
  1566     0F29  2F1B               	goto	l1449
  1567     0F2A                     u1350:
  1568     0F2A                     l1455:
  1569     0F2A  3001               	movlw	1
  1570     0F2B                     u1365:
  1571     0F2B  1003               	clrc
  1572     0F2C  0DFC               	rlf	___awdiv@quotient,f
  1573     0F2D  0DFD               	rlf	___awdiv@quotient+1,f
  1574     0F2E  3EFF               	addlw	-1
  1575     0F2F  1D03               	skipz
  1576     0F30  2F2B               	goto	u1365
  1577     0F31  0877               	movf	___awdiv@divisor+1,w
  1578     0F32  0279               	subwf	___awdiv@dividend+1,w
  1579     0F33  1D03               	skipz
  1580     0F34  2F37               	goto	u1375
  1581     0F35  0876               	movf	___awdiv@divisor,w
  1582     0F36  0278               	subwf	___awdiv@dividend,w
  1583     0F37                     u1375:
  1584     0F37  1C03               	skipc
  1585     0F38  2F3A               	goto	u1371
  1586     0F39  2F3B               	goto	u1370
  1587     0F3A                     u1371:
  1588     0F3A  2F42               	goto	l1461
  1589     0F3B                     u1370:
  1590     0F3B                     l1457:
  1591     0F3B  0876               	movf	___awdiv@divisor,w
  1592     0F3C  02F8               	subwf	___awdiv@dividend,f
  1593     0F3D  0877               	movf	___awdiv@divisor+1,w
  1594     0F3E  1C03               	skipc
  1595     0F3F  03F9               	decf	___awdiv@dividend+1,f
  1596     0F40  02F9               	subwf	___awdiv@dividend+1,f
  1597     0F41                     l1459:
  1598     0F41  147C               	bsf	___awdiv@quotient,0
  1599     0F42                     l1461:
  1600     0F42  3001               	movlw	1
  1601     0F43                     u1385:
  1602     0F43  1003               	clrc
  1603     0F44  0CF7               	rrf	___awdiv@divisor+1,f
  1604     0F45  0CF6               	rrf	___awdiv@divisor,f
  1605     0F46  3EFF               	addlw	-1
  1606     0F47  1D03               	skipz
  1607     0F48  2F43               	goto	u1385
  1608     0F49                     l1463:
  1609     0F49  3001               	movlw	1
  1610     0F4A  02FA               	subwf	___awdiv@counter,f
  1611     0F4B  1D03               	btfss	3,2
  1612     0F4C  2F4E               	goto	u1391
  1613     0F4D  2F4F               	goto	u1390
  1614     0F4E                     u1391:
  1615     0F4E  2F2A               	goto	l1455
  1616     0F4F                     u1390:
  1617     0F4F                     l1465:
  1618     0F4F  087B               	movf	___awdiv@sign,w
  1619     0F50  1903               	btfsc	3,2
  1620     0F51  2F53               	goto	u1401
  1621     0F52  2F54               	goto	u1400
  1622     0F53                     u1401:
  1623     0F53  2F59               	goto	l1469
  1624     0F54                     u1400:
  1625     0F54                     l1467:
  1626     0F54  09FC               	comf	___awdiv@quotient,f
  1627     0F55  09FD               	comf	___awdiv@quotient+1,f
  1628     0F56  0AFC               	incf	___awdiv@quotient,f
  1629     0F57  1903               	skipnz
  1630     0F58  0AFD               	incf	___awdiv@quotient+1,f
  1631     0F59                     l1469:
  1632     0F59  087D               	movf	___awdiv@quotient+1,w
  1633     0F5A  00F7               	movwf	?___awdiv+1
  1634     0F5B  087C               	movf	___awdiv@quotient,w
  1635     0F5C  00F6               	movwf	?___awdiv
  1636     0F5D                     l354:
  1637     0F5D  0008               	return
  1638     0F5E                     __end_of___awdiv:
  1639                           
  1640                           	psect	text5
  1641     0DB5                     __ptext5:	
  1642 ;; *************** function _lcddec *****************
  1643 ;; Defined at:
  1644 ;;		line 183 in file "task2.c"
  1645 ;; Parameters:    Size  Location     Type
  1646 ;;  i               2    3[COMMON] int 
  1647 ;; Auto vars:     Size  Location     Type
  1648 ;;		None
  1649 ;; Return value:  Size  Location     Type
  1650 ;;                  1    wreg      void 
  1651 ;; Registers used:
  1652 ;;		wreg, status,2, status,0, btemp+1, pclath, cstack
  1653 ;; Tracked objects:
  1654 ;;		On entry : 0/0
  1655 ;;		On exit  : 0/0
  1656 ;;		Unchanged: 0/0
  1657 ;; Data sizes:     COMMON   BANK0   BANK1   BANK3   BANK2
  1658 ;;      Params:         2       0       0       0       0
  1659 ;;      Locals:         0       0       0       0       0
  1660 ;;      Temps:          0       0       0       0       0
  1661 ;;      Totals:         2       0       0       0       0
  1662 ;;Total ram usage:        2 bytes
  1663 ;; Hardware stack levels used: 1
  1664 ;; Hardware stack levels required when called: 1
  1665 ;; This function calls:
  1666 ;;		_lcdcmd
  1667 ;;		_lcddata
  1668 ;; This function is called by:
  1669 ;;		_keyscan
  1670 ;; This function uses a non-reentrant model
  1671 ;;
  1672                           
  1673     0DB5                     _lcddec:	
  1674                           ;psect for function _lcddec
  1675                           
  1676     0DB5                     l1927:	
  1677                           ;incstack = 0
  1678                           ; Regs used in _lcddec: [wreg+status,2+status,0+btemp+1+pclath+cstack]
  1679                           
  1680                           
  1681                           ;task2.c: 183: void lcddec(int i);task2.c: 184: {;task2.c: 185:     lcdcmd(0x8D);
  1682     0DB5  308D               	movlw	141
  1683     0DB6  120A  158A  2606  120A  158A  	fcall	_lcdcmd
  1684                           
  1685                           ;task2.c: 186:     lcddata(0x30+i);
  1686     0DBB  0873               	movf	lcddec@i,w
  1687     0DBC  3E30               	addlw	48
  1688     0DBD  120A  158A  25D6  120A  158A  	fcall	_lcddata
  1689     0DC2                     l102:
  1690     0DC2  0008               	return
  1691     0DC3                     __end_of_lcddec:
  1692                           
  1693                           	psect	text6
  1694     0107                     __ptext6:	
  1695 ;; *************** function _indicator *****************
  1696 ;; Defined at:
  1697 ;;		line 188 in file "task2.c"
  1698 ;; Parameters:    Size  Location     Type
  1699 ;;		None
  1700 ;; Auto vars:     Size  Location     Type
  1701 ;;		None
  1702 ;; Return value:  Size  Location     Type
  1703 ;;                  1    wreg      void 
  1704 ;; Registers used:
  1705 ;;		wreg, fsr0l, fsr0h, status,2, status,0, btemp+1, pclath, cstack
  1706 ;; Tracked objects:
  1707 ;;		On entry : 0/0
  1708 ;;		On exit  : 0/0
  1709 ;;		Unchanged: 0/0
  1710 ;; Data sizes:     COMMON   BANK0   BANK1   BANK3   BANK2
  1711 ;;      Params:         0       0       0       0       0
  1712 ;;      Locals:         0       0       0       0       0
  1713 ;;      Temps:          0       0       0       0       0
  1714 ;;      Totals:         0       0       0       0       0
  1715 ;;Total ram usage:        0 bytes
  1716 ;; Hardware stack levels used: 1
  1717 ;; Hardware stack levels required when called: 1
  1718 ;; This function calls:
  1719 ;;		___fladd
  1720 ;;		___fldiv
  1721 ;;		___flge
  1722 ;;		___xxtofl
  1723 ;;		_lcdcmd
  1724 ;;		_lcddata
  1725 ;; This function is called by:
  1726 ;;		_keyscan
  1727 ;; This function uses a non-reentrant model
  1728 ;;
  1729                           
  1730     0107                     _indicator:	
  1731                           ;psect for function _indicator
  1732                           
  1733     0107                     l1929:	
  1734                           ;incstack = 0
  1735                           ; Regs used in _indicator: [wreg-fsr0h+status,2+status,0+btemp+1+pclath+cstack]
  1736                           
  1737                           
  1738                           ;task2.c: 190:     w=(float)de/10;
  1739     0107  3041               	movlw	65
  1740     0108  1283               	bcf	3,5	;RP0=0, select bank0
  1741     0109  1303               	bcf	3,6	;RP1=0, select bank0
  1742     010A  00A3               	movwf	___fldiv@a+3
  1743     010B  3020               	movlw	32
  1744     010C  00A2               	movwf	___fldiv@a+2
  1745     010D  3000               	movlw	0
  1746     010E  00A1               	movwf	___fldiv@a+1
  1747     010F  3000               	movlw	0
  1748     0110  00A0               	movwf	___fldiv@a
  1749     0111  085D               	movf	_de,w
  1750     0112  00F0               	movwf	___xxtofl@val
  1751     0113  085E               	movf	_de+1,w
  1752     0114  00F1               	movwf	___xxtofl@val+1
  1753     0115  3000               	movlw	0
  1754     0116  1BF1               	btfsc	___xxtofl@val+1,7
  1755     0117  30FF               	movlw	255
  1756     0118  00F2               	movwf	___xxtofl@val+2
  1757     0119  00F3               	movwf	___xxtofl@val+3
  1758     011A  3001               	movlw	1
  1759     011B  120A  118A  204F  120A  118A  	fcall	___xxtofl
  1760     0120  0873               	movf	?___xxtofl+3,w
  1761     0121  1283               	bcf	3,5	;RP0=0, select bank0
  1762     0122  1303               	bcf	3,6	;RP1=0, select bank0
  1763     0123  00A7               	movwf	___fldiv@b+3
  1764     0124  0872               	movf	?___xxtofl+2,w
  1765     0125  00A6               	movwf	___fldiv@b+2
  1766     0126  0871               	movf	?___xxtofl+1,w
  1767     0127  00A5               	movwf	___fldiv@b+1
  1768     0128  0870               	movf	?___xxtofl,w
  1769     0129  00A4               	movwf	___fldiv@b
  1770     012A  120A  118A  23B2  120A  118A  	fcall	___fldiv
  1771     012F  1283               	bcf	3,5	;RP0=0, select bank0
  1772     0130  1303               	bcf	3,6	;RP1=0, select bank0
  1773     0131  0823               	movf	?___fldiv+3,w
  1774     0132  00D8               	movwf	_w+3
  1775     0133  0822               	movf	?___fldiv+2,w
  1776     0134  00D7               	movwf	_w+2
  1777     0135  0821               	movf	?___fldiv+1,w
  1778     0136  00D6               	movwf	_w+1
  1779     0137  0820               	movf	?___fldiv,w
  1780     0138  00D5               	movwf	_w
  1781                           
  1782                           ;task2.c: 191:     v=(float)j+w;
  1783     0139  0858               	movf	_w+3,w
  1784     013A  00A3               	movwf	___fladd@b+3
  1785     013B  0857               	movf	_w+2,w
  1786     013C  00A2               	movwf	___fladd@b+2
  1787     013D  0856               	movf	_w+1,w
  1788     013E  00A1               	movwf	___fladd@b+1
  1789     013F  0855               	movf	_w,w
  1790     0140  00A0               	movwf	___fladd@b
  1791     0141  085F               	movf	_j,w
  1792     0142  00F0               	movwf	___xxtofl@val
  1793     0143  0860               	movf	_j+1,w
  1794     0144  00F1               	movwf	___xxtofl@val+1
  1795     0145  01F2               	clrf	___xxtofl@val+2
  1796     0146  01F3               	clrf	___xxtofl@val+3
  1797     0147  3000               	movlw	0
  1798     0148  120A  118A  204F  120A  118A  	fcall	___xxtofl
  1799     014D  0873               	movf	?___xxtofl+3,w
  1800     014E  1283               	bcf	3,5	;RP0=0, select bank0
  1801     014F  1303               	bcf	3,6	;RP1=0, select bank0
  1802     0150  00A7               	movwf	___fladd@a+3
  1803     0151  0872               	movf	?___xxtofl+2,w
  1804     0152  00A6               	movwf	___fladd@a+2
  1805     0153  0871               	movf	?___xxtofl+1,w
  1806     0154  00A5               	movwf	___fladd@a+1
  1807     0155  0870               	movf	?___xxtofl,w
  1808     0156  00A4               	movwf	___fladd@a
  1809     0157  120A  118A  2581  120A  118A  	fcall	___fladd
  1810     015C  1283               	bcf	3,5	;RP0=0, select bank0
  1811     015D  1303               	bcf	3,6	;RP1=0, select bank0
  1812     015E  0823               	movf	?___fladd+3,w
  1813     015F  00DC               	movwf	_v+3
  1814     0160  0822               	movf	?___fladd+2,w
  1815     0161  00DB               	movwf	_v+2
  1816     0162  0821               	movf	?___fladd+1,w
  1817     0163  00DA               	movwf	_v+1
  1818     0164  0820               	movf	?___fladd,w
  1819     0165  00D9               	movwf	_v
  1820     0166                     l1931:
  1821                           
  1822                           ;task2.c: 192:     if (v>=15.0&&v<=17.5)
  1823     0166  085C               	movf	_v+3,w
  1824     0167  00F3               	movwf	___flge@ff1+3
  1825     0168  085B               	movf	_v+2,w
  1826     0169  00F2               	movwf	___flge@ff1+2
  1827     016A  085A               	movf	_v+1,w
  1828     016B  00F1               	movwf	___flge@ff1+1
  1829     016C  0859               	movf	_v,w
  1830     016D  00F0               	movwf	___flge@ff1
  1831     016E  3041               	movlw	65
  1832     016F  00F7               	movwf	___flge@ff2+3
  1833     0170  3070               	movlw	112
  1834     0171  00F6               	movwf	___flge@ff2+2
  1835     0172  3000               	movlw	0
  1836     0173  00F5               	movwf	___flge@ff2+1
  1837     0174  3000               	movlw	0
  1838     0175  00F4               	movwf	___flge@ff2
  1839     0176  120A  158A  275E  120A  118A  	fcall	___flge
  1840     017B  1C03               	btfss	3,0
  1841     017C  297E               	goto	u2461
  1842     017D  297F               	goto	u2460
  1843     017E                     u2461:
  1844     017E  29BA               	goto	l1949
  1845     017F                     u2460:
  1846     017F                     l1933:
  1847     017F  3041               	movlw	65
  1848     0180  00F3               	movwf	___flge@ff1+3
  1849     0181  308C               	movlw	140
  1850     0182  00F2               	movwf	___flge@ff1+2
  1851     0183  3000               	movlw	0
  1852     0184  00F1               	movwf	___flge@ff1+1
  1853     0185  3000               	movlw	0
  1854     0186  00F0               	movwf	___flge@ff1
  1855     0187  1283               	bcf	3,5	;RP0=0, select bank0
  1856     0188  1303               	bcf	3,6	;RP1=0, select bank0
  1857     0189  085C               	movf	_v+3,w
  1858     018A  00F7               	movwf	___flge@ff2+3
  1859     018B  085B               	movf	_v+2,w
  1860     018C  00F6               	movwf	___flge@ff2+2
  1861     018D  085A               	movf	_v+1,w
  1862     018E  00F5               	movwf	___flge@ff2+1
  1863     018F  0859               	movf	_v,w
  1864     0190  00F4               	movwf	___flge@ff2
  1865     0191  120A  158A  275E  120A  118A  	fcall	___flge
  1866     0196  1C03               	btfss	3,0
  1867     0197  2999               	goto	u2471
  1868     0198  299A               	goto	u2470
  1869     0199                     u2471:
  1870     0199  29BA               	goto	l1949
  1871     019A                     u2470:
  1872     019A                     l1935:
  1873                           
  1874                           ;task2.c: 193:     {;task2.c: 194:         lcdcmd(0xC0);
  1875     019A  30C0               	movlw	192
  1876     019B  120A  158A  2606  120A  118A  	fcall	_lcdcmd
  1877     01A0                     l1937:
  1878                           
  1879                           ;task2.c: 195:         for(a=0;a<=11;a++)
  1880     01A0  1283               	bcf	3,5	;RP0=0, select bank0
  1881     01A1  1303               	bcf	3,6	;RP1=0, select bank0
  1882     01A2  01E7               	clrf	_a
  1883     01A3                     l1943:
  1884                           
  1885                           ;task2.c: 196:             lcddata(bat[a]);
  1886     01A3  0867               	movf	_a,w
  1887     01A4  3E48               	addlw	(low (_bat| 0))& (0+255)
  1888     01A5  0084               	movwf	4
  1889     01A6  1383               	bcf	3,7	;select IRP bank0
  1890     01A7  0800               	movf	0,w
  1891     01A8  120A  158A  25D6  120A  118A  	fcall	_lcddata
  1892     01AD                     l1945:
  1893     01AD  3001               	movlw	1
  1894     01AE  00FF               	movwf	btemp+1
  1895     01AF  087F               	movf	btemp+1,w
  1896     01B0  1283               	bcf	3,5	;RP0=0, select bank0
  1897     01B1  1303               	bcf	3,6	;RP1=0, select bank0
  1898     01B2  07E7               	addwf	_a,f
  1899     01B3                     l1947:
  1900     01B3  300C               	movlw	12
  1901     01B4  0267               	subwf	_a,w
  1902     01B5  1C03               	skipc
  1903     01B6  29B8               	goto	u2481
  1904     01B7  29B9               	goto	u2480
  1905     01B8                     u2481:
  1906     01B8  29A3               	goto	l1943
  1907     01B9                     u2480:
  1908     01B9  2A2F               	goto	l115
  1909     01BA                     l1949:
  1910     01BA  3041               	movlw	65
  1911     01BB  00F3               	movwf	___flge@ff1+3
  1912     01BC  308C               	movlw	140
  1913     01BD  00F2               	movwf	___flge@ff1+2
  1914     01BE  3000               	movlw	0
  1915     01BF  00F1               	movwf	___flge@ff1+1
  1916     01C0  3000               	movlw	0
  1917     01C1  00F0               	movwf	___flge@ff1
  1918     01C2  1283               	bcf	3,5	;RP0=0, select bank0
  1919     01C3  1303               	bcf	3,6	;RP1=0, select bank0
  1920     01C4  085C               	movf	_v+3,w
  1921     01C5  00F7               	movwf	___flge@ff2+3
  1922     01C6  085B               	movf	_v+2,w
  1923     01C7  00F6               	movwf	___flge@ff2+2
  1924     01C8  085A               	movf	_v+1,w
  1925     01C9  00F5               	movwf	___flge@ff2+1
  1926     01CA  0859               	movf	_v,w
  1927     01CB  00F4               	movwf	___flge@ff2
  1928     01CC  120A  158A  275E  120A  118A  	fcall	___flge
  1929     01D1  1803               	btfsc	3,0
  1930     01D2  29D4               	goto	u2491
  1931     01D3  29D5               	goto	u2490
  1932     01D4                     u2491:
  1933     01D4  2A10               	goto	l1967
  1934     01D5                     u2490:
  1935     01D5                     l1951:
  1936     01D5  3041               	movlw	65
  1937     01D6  00F3               	movwf	___flge@ff1+3
  1938     01D7  30A4               	movlw	164
  1939     01D8  00F2               	movwf	___flge@ff1+2
  1940     01D9  3000               	movlw	0
  1941     01DA  00F1               	movwf	___flge@ff1+1
  1942     01DB  3000               	movlw	0
  1943     01DC  00F0               	movwf	___flge@ff1
  1944     01DD  1283               	bcf	3,5	;RP0=0, select bank0
  1945     01DE  1303               	bcf	3,6	;RP1=0, select bank0
  1946     01DF  085C               	movf	_v+3,w
  1947     01E0  00F7               	movwf	___flge@ff2+3
  1948     01E1  085B               	movf	_v+2,w
  1949     01E2  00F6               	movwf	___flge@ff2+2
  1950     01E3  085A               	movf	_v+1,w
  1951     01E4  00F5               	movwf	___flge@ff2+1
  1952     01E5  0859               	movf	_v,w
  1953     01E6  00F4               	movwf	___flge@ff2
  1954     01E7  120A  158A  275E  120A  118A  	fcall	___flge
  1955     01EC  1C03               	btfss	3,0
  1956     01ED  29EF               	goto	u2501
  1957     01EE  29F0               	goto	u2500
  1958     01EF                     u2501:
  1959     01EF  2A10               	goto	l1967
  1960     01F0                     u2500:
  1961     01F0                     l1953:
  1962                           
  1963                           ;task2.c: 199:     {;task2.c: 200:         lcdcmd(0xC0);
  1964     01F0  30C0               	movlw	192
  1965     01F1  120A  158A  2606  120A  118A  	fcall	_lcdcmd
  1966     01F6                     l1955:
  1967                           
  1968                           ;task2.c: 201:         for(a=0;a<=11;a++)
  1969     01F6  1283               	bcf	3,5	;RP0=0, select bank0
  1970     01F7  1303               	bcf	3,6	;RP1=0, select bank0
  1971     01F8  01E7               	clrf	_a
  1972     01F9                     l1961:
  1973                           
  1974                           ;task2.c: 202:             lcddata(bat1[a]);
  1975     01F9  0867               	movf	_a,w
  1976     01FA  3E3C               	addlw	(low (_bat1| 0))& (0+255)
  1977     01FB  0084               	movwf	4
  1978     01FC  1383               	bcf	3,7	;select IRP bank0
  1979     01FD  0800               	movf	0,w
  1980     01FE  120A  158A  25D6  120A  118A  	fcall	_lcddata
  1981     0203                     l1963:
  1982     0203  3001               	movlw	1
  1983     0204  00FF               	movwf	btemp+1
  1984     0205  087F               	movf	btemp+1,w
  1985     0206  1283               	bcf	3,5	;RP0=0, select bank0
  1986     0207  1303               	bcf	3,6	;RP1=0, select bank0
  1987     0208  07E7               	addwf	_a,f
  1988     0209                     l1965:
  1989     0209  300C               	movlw	12
  1990     020A  0267               	subwf	_a,w
  1991     020B  1C03               	skipc
  1992     020C  2A0E               	goto	u2511
  1993     020D  2A0F               	goto	u2510
  1994     020E                     u2511:
  1995     020E  29F9               	goto	l1961
  1996     020F                     u2510:
  1997     020F  2A2F               	goto	l115
  1998     0210                     l1967:
  1999                           
  2000                           ;task2.c: 205:     {;task2.c: 206:         lcdcmd(0xC0);
  2001     0210  30C0               	movlw	192
  2002     0211  120A  158A  2606  120A  118A  	fcall	_lcdcmd
  2003     0216                     l1969:
  2004                           
  2005                           ;task2.c: 207:         for(a=0;a<=12;a++)
  2006     0216  1283               	bcf	3,5	;RP0=0, select bank0
  2007     0217  1303               	bcf	3,6	;RP1=0, select bank0
  2008     0218  01E7               	clrf	_a
  2009     0219                     l1975:
  2010                           
  2011                           ;task2.c: 208:             lcddata(bat2[a]);
  2012     0219  0867               	movf	_a,w
  2013     021A  3EBE               	addlw	(low (_bat2| 0))& (0+255)
  2014     021B  0084               	movwf	4
  2015     021C  1383               	bcf	3,7	;select IRP bank1
  2016     021D  0800               	movf	0,w
  2017     021E  120A  158A  25D6  120A  118A  	fcall	_lcddata
  2018     0223                     l1977:
  2019     0223  3001               	movlw	1
  2020     0224  00FF               	movwf	btemp+1
  2021     0225  087F               	movf	btemp+1,w
  2022     0226  1283               	bcf	3,5	;RP0=0, select bank0
  2023     0227  1303               	bcf	3,6	;RP1=0, select bank0
  2024     0228  07E7               	addwf	_a,f
  2025     0229                     l1979:
  2026     0229  300D               	movlw	13
  2027     022A  0267               	subwf	_a,w
  2028     022B  1C03               	skipc
  2029     022C  2A2E               	goto	u2521
  2030     022D  2A2F               	goto	u2520
  2031     022E                     u2521:
  2032     022E  2A19               	goto	l1975
  2033     022F                     u2520:
  2034     022F                     l115:
  2035     022F  0008               	return
  2036     0230                     __end_of_indicator:
  2037                           
  2038                           	psect	text7
  2039     0DD6                     __ptext7:	
  2040 ;; *************** function _lcddata *****************
  2041 ;; Defined at:
  2042 ;;		line 166 in file "task2.c"
  2043 ;; Parameters:    Size  Location     Type
  2044 ;;  i               1    wreg     unsigned char 
  2045 ;; Auto vars:     Size  Location     Type
  2046 ;;  i               1    2[COMMON] unsigned char 
  2047 ;; Return value:  Size  Location     Type
  2048 ;;                  1    wreg      void 
  2049 ;; Registers used:
  2050 ;;		wreg, status,2, status,0, btemp+1
  2051 ;; Tracked objects:
  2052 ;;		On entry : 0/0
  2053 ;;		On exit  : 0/0
  2054 ;;		Unchanged: 0/0
  2055 ;; Data sizes:     COMMON   BANK0   BANK1   BANK3   BANK2
  2056 ;;      Params:         0       0       0       0       0
  2057 ;;      Locals:         1       0       0       0       0
  2058 ;;      Temps:          2       0       0       0       0
  2059 ;;      Totals:         3       0       0       0       0
  2060 ;;Total ram usage:        3 bytes
  2061 ;; Hardware stack levels used: 1
  2062 ;; This function calls:
  2063 ;;		Nothing
  2064 ;; This function is called by:
  2065 ;;		_keyscan
  2066 ;;		_lcdoutput
  2067 ;;		_lcddec
  2068 ;;		_indicator
  2069 ;; This function uses a non-reentrant model
  2070 ;;
  2071                           
  2072     0DD6                     _lcddata:	
  2073                           ;psect for function _lcddata
  2074                           
  2075                           
  2076                           ;incstack = 0
  2077                           ; Regs used in _lcddata: [wreg+status,2+status,0+btemp+1]
  2078                           ;lcddata@i stored from wreg
  2079     0DD6  00F2               	movwf	lcddata@i
  2080     0DD7                     l1421:
  2081                           
  2082                           ;task2.c: 166: void lcddata(unsigned char i);task2.c: 167: {;task2.c: 168:     PORTC|=(0
      +                          x08);
  2083     0DD7  1283               	bcf	3,5	;RP0=0, select bank0
  2084     0DD8  1303               	bcf	3,6	;RP1=0, select bank0
  2085     0DD9  1587               	bsf	7,3	;volatile
  2086     0DDA                     l1423:
  2087                           
  2088                           ;task2.c: 169:     PORTD=i;
  2089     0DDA  0872               	movf	lcddata@i,w
  2090     0DDB  0088               	movwf	8	;volatile
  2091     0DDC                     l1425:
  2092                           
  2093                           ;task2.c: 170:     PORTC|=(0x01);
  2094     0DDC  1407               	bsf	7,0	;volatile
  2095                           
  2096                           ;task2.c: 171:     _delay((unsigned long)((25)*(6000000/4000.0)));
  2097     0DDD  3031               	movlw	49
  2098     0DDE  00F1               	movwf	??_lcddata+1
  2099     0DDF  30B2               	movlw	178
  2100     0DE0  00F0               	movwf	??_lcddata
  2101     0DE1                     u2627:
  2102     0DE1  0BF0               	decfsz	??_lcddata,f
  2103     0DE2  2DE1               	goto	u2627
  2104     0DE3  0BF1               	decfsz	??_lcddata+1,f
  2105     0DE4  2DE1               	goto	u2627
  2106     0DE5  0000               	nop
  2107     0DE6                     l1427:
  2108                           
  2109                           ;task2.c: 172:     PORTC&=~(0x01);
  2110     0DE6  30FE               	movlw	254
  2111     0DE7  00FF               	movwf	btemp+1
  2112     0DE8  087F               	movf	btemp+1,w
  2113     0DE9  1283               	bcf	3,5	;RP0=0, select bank0
  2114     0DEA  1303               	bcf	3,6	;RP1=0, select bank0
  2115     0DEB  0587               	andwf	7,f	;volatile
  2116     0DEC                     l96:
  2117     0DEC  0008               	return
  2118     0DED                     __end_of_lcddata:
  2119                           
  2120                           	psect	text8
  2121     004F                     __ptext8:	
  2122 ;; *************** function ___xxtofl *****************
  2123 ;; Defined at:
  2124 ;;		line 10 in file "C:\Program Files\Microchip\xc8\v2.45\pic\sources\c99\common\xxtofl.c"
  2125 ;; Parameters:    Size  Location     Type
  2126 ;;  sign            1    wreg     unsigned char 
  2127 ;;  val             4    0[COMMON] long 
  2128 ;; Auto vars:     Size  Location     Type
  2129 ;;  sign            1    8[COMMON] unsigned char 
  2130 ;;  arg             4   10[COMMON] unsigned long 
  2131 ;;  exp             1    9[COMMON] unsigned char 
  2132 ;; Return value:  Size  Location     Type
  2133 ;;                  4    0[COMMON] unsigned char 
  2134 ;; Registers used:
  2135 ;;		wreg, status,2, status,0, btemp+1
  2136 ;; Tracked objects:
  2137 ;;		On entry : 0/0
  2138 ;;		On exit  : 0/0
  2139 ;;		Unchanged: 0/0
  2140 ;; Data sizes:     COMMON   BANK0   BANK1   BANK3   BANK2
  2141 ;;      Params:         4       0       0       0       0
  2142 ;;      Locals:         6       0       0       0       0
  2143 ;;      Temps:          4       0       0       0       0
  2144 ;;      Totals:        14       0       0       0       0
  2145 ;;Total ram usage:       14 bytes
  2146 ;; Hardware stack levels used: 1
  2147 ;; This function calls:
  2148 ;;		Nothing
  2149 ;; This function is called by:
  2150 ;;		_indicator
  2151 ;; This function uses a non-reentrant model
  2152 ;;
  2153                           
  2154     004F                     ___xxtofl:	
  2155                           ;psect for function ___xxtofl
  2156                           
  2157                           
  2158                           ;incstack = 0
  2159                           ; Regs used in ___xxtofl: [wreg+status,2+status,0+btemp+1]
  2160                           ;___xxtofl@sign stored from wreg
  2161     004F  00F8               	movwf	___xxtofl@sign
  2162     0050                     l1877:
  2163     0050  0878               	movf	___xxtofl@sign,w
  2164     0051  1903               	btfsc	3,2
  2165     0052  2854               	goto	u2321
  2166     0053  2855               	goto	u2320
  2167     0054                     u2321:
  2168     0054  2869               	goto	l1883
  2169     0055                     u2320:
  2170     0055                     l1879:
  2171     0055  1FF3               	btfss	___xxtofl@val+3,7
  2172     0056  2858               	goto	u2331
  2173     0057  2859               	goto	u2330
  2174     0058                     u2331:
  2175     0058  2869               	goto	l1883
  2176     0059                     u2330:
  2177     0059                     l1881:
  2178     0059  0970               	comf	___xxtofl@val,w
  2179     005A  00FA               	movwf	___xxtofl@arg
  2180     005B  0971               	comf	___xxtofl@val+1,w
  2181     005C  00FB               	movwf	___xxtofl@arg+1
  2182     005D  0972               	comf	___xxtofl@val+2,w
  2183     005E  00FC               	movwf	___xxtofl@arg+2
  2184     005F  0973               	comf	___xxtofl@val+3,w
  2185     0060  00FD               	movwf	___xxtofl@arg+3
  2186     0061  0AFA               	incf	___xxtofl@arg,f
  2187     0062  1903               	skipnz
  2188     0063  0AFB               	incf	___xxtofl@arg+1,f
  2189     0064  1903               	skipnz
  2190     0065  0AFC               	incf	___xxtofl@arg+2,f
  2191     0066  1903               	skipnz
  2192     0067  0AFD               	incf	___xxtofl@arg+3,f
  2193     0068  2871               	goto	l642
  2194     0069                     l1883:
  2195     0069  0873               	movf	___xxtofl@val+3,w
  2196     006A  00FD               	movwf	___xxtofl@arg+3
  2197     006B  0872               	movf	___xxtofl@val+2,w
  2198     006C  00FC               	movwf	___xxtofl@arg+2
  2199     006D  0871               	movf	___xxtofl@val+1,w
  2200     006E  00FB               	movwf	___xxtofl@arg+1
  2201     006F  0870               	movf	___xxtofl@val,w
  2202     0070  00FA               	movwf	___xxtofl@arg
  2203     0071                     l642:
  2204     0071  0873               	movf	___xxtofl@val+3,w
  2205     0072  0472               	iorwf	___xxtofl@val+2,w
  2206     0073  0471               	iorwf	___xxtofl@val+1,w
  2207     0074  0470               	iorwf	___xxtofl@val,w
  2208     0075  1D03               	skipz
  2209     0076  2878               	goto	u2341
  2210     0077  2879               	goto	u2340
  2211     0078                     u2341:
  2212     0078  2882               	goto	l1889
  2213     0079                     u2340:
  2214     0079                     l1885:
  2215     0079  3000               	movlw	0
  2216     007A  00F3               	movwf	?___xxtofl+3
  2217     007B  3000               	movlw	0
  2218     007C  00F2               	movwf	?___xxtofl+2
  2219     007D  3000               	movlw	0
  2220     007E  00F1               	movwf	?___xxtofl+1
  2221     007F  3000               	movlw	0
  2222     0080  00F0               	movwf	?___xxtofl
  2223     0081  2906               	goto	l644
  2224     0082                     l1889:
  2225     0082  3096               	movlw	150
  2226     0083  00F9               	movwf	___xxtofl@exp
  2227     0084  2892               	goto	l1895
  2228     0085                     l1891:
  2229     0085  3001               	movlw	1
  2230     0086  00FF               	movwf	btemp+1
  2231     0087  087F               	movf	btemp+1,w
  2232     0088  07F9               	addwf	___xxtofl@exp,f
  2233     0089                     l1893:
  2234     0089  3001               	movlw	1
  2235     008A                     u2355:
  2236     008A  1003               	clrc
  2237     008B  0CFD               	rrf	___xxtofl@arg+3,f
  2238     008C  0CFC               	rrf	___xxtofl@arg+2,f
  2239     008D  0CFB               	rrf	___xxtofl@arg+1,f
  2240     008E  0CFA               	rrf	___xxtofl@arg,f
  2241     008F  3EFF               	addlw	-1
  2242     0090  1D03               	skipz
  2243     0091  288A               	goto	u2355
  2244     0092                     l1895:
  2245     0092  30FE               	movlw	254
  2246     0093  057D               	andwf	___xxtofl@arg+3,w
  2247     0094  1D03               	btfss	3,2
  2248     0095  2897               	goto	u2361
  2249     0096  2898               	goto	u2360
  2250     0097                     u2361:
  2251     0097  2885               	goto	l1891
  2252     0098                     u2360:
  2253     0098  28B4               	goto	l1903
  2254     0099                     l1897:
  2255     0099  3001               	movlw	1
  2256     009A  00FF               	movwf	btemp+1
  2257     009B  087F               	movf	btemp+1,w
  2258     009C  07F9               	addwf	___xxtofl@exp,f
  2259     009D                     l1899:
  2260     009D  3001               	movlw	1
  2261     009E  07FA               	addwf	___xxtofl@arg,f
  2262     009F  3000               	movlw	0
  2263     00A0  1803               	skipnc
  2264     00A1  3001               	movlw	1
  2265     00A2  07FB               	addwf	___xxtofl@arg+1,f
  2266     00A3  3000               	movlw	0
  2267     00A4  1803               	skipnc
  2268     00A5  3001               	movlw	1
  2269     00A6  07FC               	addwf	___xxtofl@arg+2,f
  2270     00A7  3000               	movlw	0
  2271     00A8  1803               	skipnc
  2272     00A9  3001               	movlw	1
  2273     00AA  07FD               	addwf	___xxtofl@arg+3,f
  2274     00AB                     l1901:
  2275     00AB  3001               	movlw	1
  2276     00AC                     u2375:
  2277     00AC  1003               	clrc
  2278     00AD  0CFD               	rrf	___xxtofl@arg+3,f
  2279     00AE  0CFC               	rrf	___xxtofl@arg+2,f
  2280     00AF  0CFB               	rrf	___xxtofl@arg+1,f
  2281     00B0  0CFA               	rrf	___xxtofl@arg,f
  2282     00B1  3EFF               	addlw	-1
  2283     00B2  1D03               	skipz
  2284     00B3  28AC               	goto	u2375
  2285     00B4                     l1903:
  2286     00B4  30FF               	movlw	255
  2287     00B5  057D               	andwf	___xxtofl@arg+3,w
  2288     00B6  1D03               	btfss	3,2
  2289     00B7  28B9               	goto	u2381
  2290     00B8  28BA               	goto	u2380
  2291     00B9                     u2381:
  2292     00B9  2899               	goto	l1897
  2293     00BA                     u2380:
  2294     00BA  28C6               	goto	l1907
  2295     00BB                     l1905:
  2296     00BB  3001               	movlw	1
  2297     00BC  02F9               	subwf	___xxtofl@exp,f
  2298     00BD  3001               	movlw	1
  2299     00BE  00F4               	movwf	??___xxtofl
  2300     00BF                     u2395:
  2301     00BF  1003               	clrc
  2302     00C0  0DFA               	rlf	___xxtofl@arg,f
  2303     00C1  0DFB               	rlf	___xxtofl@arg+1,f
  2304     00C2  0DFC               	rlf	___xxtofl@arg+2,f
  2305     00C3  0DFD               	rlf	___xxtofl@arg+3,f
  2306     00C4  0BF4               	decfsz	??___xxtofl,f
  2307     00C5  28BF               	goto	u2395
  2308     00C6                     l1907:
  2309     00C6  1BFC               	btfsc	___xxtofl@arg+2,7
  2310     00C7  28C9               	goto	u2401
  2311     00C8  28CA               	goto	u2400
  2312     00C9                     u2401:
  2313     00C9  28D0               	goto	l655
  2314     00CA                     u2400:
  2315     00CA                     l1909:
  2316     00CA  3002               	movlw	2
  2317     00CB  0279               	subwf	___xxtofl@exp,w
  2318     00CC  1803               	skipnc
  2319     00CD  28CF               	goto	u2411
  2320     00CE  28D0               	goto	u2410
  2321     00CF                     u2411:
  2322     00CF  28BB               	goto	l1905
  2323     00D0                     u2410:
  2324     00D0                     l655:
  2325     00D0  1879               	btfsc	___xxtofl@exp,0
  2326     00D1  28D3               	goto	u2421
  2327     00D2  28D4               	goto	u2420
  2328     00D3                     u2421:
  2329     00D3  28DC               	goto	l656
  2330     00D4                     u2420:
  2331     00D4                     l1911:
  2332     00D4  30FF               	movlw	255
  2333     00D5  05FA               	andwf	___xxtofl@arg,f
  2334     00D6  30FF               	movlw	255
  2335     00D7  05FB               	andwf	___xxtofl@arg+1,f
  2336     00D8  307F               	movlw	127
  2337     00D9  05FC               	andwf	___xxtofl@arg+2,f
  2338     00DA  30FF               	movlw	255
  2339     00DB  05FD               	andwf	___xxtofl@arg+3,f
  2340     00DC                     l656:
  2341     00DC  1003               	clrc
  2342     00DD  0CF9               	rrf	___xxtofl@exp,f
  2343     00DE                     l1913:
  2344     00DE  0879               	movf	___xxtofl@exp,w
  2345     00DF  00F4               	movwf	??___xxtofl
  2346     00E0  01F5               	clrf	??___xxtofl+1
  2347     00E1  01F6               	clrf	??___xxtofl+2
  2348     00E2  01F7               	clrf	??___xxtofl+3
  2349     00E3  3018               	movlw	24
  2350     00E4                     u2435:
  2351     00E4  1003               	clrc
  2352     00E5  0DF4               	rlf	??___xxtofl,f
  2353     00E6  0DF5               	rlf	??___xxtofl+1,f
  2354     00E7  0DF6               	rlf	??___xxtofl+2,f
  2355     00E8  0DF7               	rlf	??___xxtofl+3,f
  2356     00E9                     u2430:
  2357     00E9  3EFF               	addlw	-1
  2358     00EA  1D03               	skipz
  2359     00EB  28E4               	goto	u2435
  2360     00EC  0874               	movf	??___xxtofl,w
  2361     00ED  04FA               	iorwf	___xxtofl@arg,f
  2362     00EE  0875               	movf	??___xxtofl+1,w
  2363     00EF  04FB               	iorwf	___xxtofl@arg+1,f
  2364     00F0  0876               	movf	??___xxtofl+2,w
  2365     00F1  04FC               	iorwf	___xxtofl@arg+2,f
  2366     00F2  0877               	movf	??___xxtofl+3,w
  2367     00F3  04FD               	iorwf	___xxtofl@arg+3,f
  2368     00F4                     l1915:
  2369     00F4  0878               	movf	___xxtofl@sign,w
  2370     00F5  1903               	btfsc	3,2
  2371     00F6  28F8               	goto	u2441
  2372     00F7  28F9               	goto	u2440
  2373     00F8                     u2441:
  2374     00F8  28FE               	goto	l1921
  2375     00F9                     u2440:
  2376     00F9                     l1917:
  2377     00F9  1FF3               	btfss	___xxtofl@val+3,7
  2378     00FA  28FC               	goto	u2451
  2379     00FB  28FD               	goto	u2450
  2380     00FC                     u2451:
  2381     00FC  28FE               	goto	l1921
  2382     00FD                     u2450:
  2383     00FD                     l1919:
  2384     00FD  17FD               	bsf	___xxtofl@arg+3,7
  2385     00FE                     l1921:
  2386     00FE  087D               	movf	___xxtofl@arg+3,w
  2387     00FF  00F3               	movwf	?___xxtofl+3
  2388     0100  087C               	movf	___xxtofl@arg+2,w
  2389     0101  00F2               	movwf	?___xxtofl+2
  2390     0102  087B               	movf	___xxtofl@arg+1,w
  2391     0103  00F1               	movwf	?___xxtofl+1
  2392     0104  087A               	movf	___xxtofl@arg,w
  2393     0105  00F0               	movwf	?___xxtofl
  2394     0106                     l644:
  2395     0106  0008               	return
  2396     0107                     __end_of___xxtofl:
  2397                           
  2398                           	psect	text9
  2399     0F5E                     __ptext9:	
  2400 ;; *************** function ___flge *****************
  2401 ;; Defined at:
  2402 ;;		line 4 in file "C:\Program Files\Microchip\xc8\v2.45\pic\sources\c99\common\flge.c"
  2403 ;; Parameters:    Size  Location     Type
  2404 ;;  ff1             4    0[COMMON] unsigned char 
  2405 ;;  ff2             4    4[COMMON] unsigned char 
  2406 ;; Auto vars:     Size  Location     Type
  2407 ;;		None
  2408 ;; Return value:  Size  Location     Type
  2409 ;;		None               void
  2410 ;; Registers used:
  2411 ;;		wreg, status,2, status,0
  2412 ;; Tracked objects:
  2413 ;;		On entry : 0/0
  2414 ;;		On exit  : 0/0
  2415 ;;		Unchanged: 0/0
  2416 ;; Data sizes:     COMMON   BANK0   BANK1   BANK3   BANK2
  2417 ;;      Params:         8       0       0       0       0
  2418 ;;      Locals:         0       0       0       0       0
  2419 ;;      Temps:          4       0       0       0       0
  2420 ;;      Totals:        12       0       0       0       0
  2421 ;;Total ram usage:       12 bytes
  2422 ;; Hardware stack levels used: 1
  2423 ;; This function calls:
  2424 ;;		Nothing
  2425 ;; This function is called by:
  2426 ;;		_indicator
  2427 ;; This function uses a non-reentrant model
  2428 ;;
  2429                           
  2430     0F5E                     ___flge:	
  2431                           ;psect for function ___flge
  2432                           
  2433     0F5E                     l1511:	
  2434                           ;incstack = 0
  2435                           ; Regs used in ___flge: [wreg+status,2+status,0]
  2436                           
  2437     0F5E  3000               	movlw	0
  2438     0F5F  0570               	andwf	___flge@ff1,w
  2439     0F60  00F8               	movwf	??___flge
  2440     0F61  3000               	movlw	0
  2441     0F62  0571               	andwf	___flge@ff1+1,w
  2442     0F63  00F9               	movwf	??___flge+1
  2443     0F64  3080               	movlw	128
  2444     0F65  0572               	andwf	___flge@ff1+2,w
  2445     0F66  00FA               	movwf	??___flge+2
  2446     0F67  307F               	movlw	127
  2447     0F68  0573               	andwf	___flge@ff1+3,w
  2448     0F69  00FB               	movwf	??___flge+3
  2449     0F6A  087B               	movf	??___flge+3,w
  2450     0F6B  047A               	iorwf	??___flge+2,w
  2451     0F6C  0479               	iorwf	??___flge+1,w
  2452     0F6D  0478               	iorwf	??___flge,w
  2453     0F6E  1D03               	skipz
  2454     0F6F  2F71               	goto	u1501
  2455     0F70  2F72               	goto	u1500
  2456     0F71                     u1501:
  2457     0F71  2F7A               	goto	l379
  2458     0F72                     u1500:
  2459     0F72                     l1513:
  2460     0F72  3000               	movlw	0
  2461     0F73  00F3               	movwf	___flge@ff1+3
  2462     0F74  3000               	movlw	0
  2463     0F75  00F2               	movwf	___flge@ff1+2
  2464     0F76  3000               	movlw	0
  2465     0F77  00F1               	movwf	___flge@ff1+1
  2466     0F78  3000               	movlw	0
  2467     0F79  00F0               	movwf	___flge@ff1
  2468     0F7A                     l379:
  2469     0F7A  3000               	movlw	0
  2470     0F7B  0574               	andwf	___flge@ff2,w
  2471     0F7C  00F8               	movwf	??___flge
  2472     0F7D  3000               	movlw	0
  2473     0F7E  0575               	andwf	___flge@ff2+1,w
  2474     0F7F  00F9               	movwf	??___flge+1
  2475     0F80  3080               	movlw	128
  2476     0F81  0576               	andwf	___flge@ff2+2,w
  2477     0F82  00FA               	movwf	??___flge+2
  2478     0F83  307F               	movlw	127
  2479     0F84  0577               	andwf	___flge@ff2+3,w
  2480     0F85  00FB               	movwf	??___flge+3
  2481     0F86  087B               	movf	??___flge+3,w
  2482     0F87  047A               	iorwf	??___flge+2,w
  2483     0F88  0479               	iorwf	??___flge+1,w
  2484     0F89  0478               	iorwf	??___flge,w
  2485     0F8A  1D03               	skipz
  2486     0F8B  2F8D               	goto	u1511
  2487     0F8C  2F8E               	goto	u1510
  2488     0F8D                     u1511:
  2489     0F8D  2F96               	goto	l1517
  2490     0F8E                     u1510:
  2491     0F8E                     l1515:
  2492     0F8E  3000               	movlw	0
  2493     0F8F  00F7               	movwf	___flge@ff2+3
  2494     0F90  3000               	movlw	0
  2495     0F91  00F6               	movwf	___flge@ff2+2
  2496     0F92  3000               	movlw	0
  2497     0F93  00F5               	movwf	___flge@ff2+1
  2498     0F94  3000               	movlw	0
  2499     0F95  00F4               	movwf	___flge@ff2
  2500     0F96                     l1517:
  2501     0F96  1FF3               	btfss	___flge@ff1+3,7
  2502     0F97  2F99               	goto	u1521
  2503     0F98  2F9A               	goto	u1520
  2504     0F99                     u1521:
  2505     0F99  2FBE               	goto	l1521
  2506     0F9A                     u1520:
  2507     0F9A                     l1519:
  2508     0F9A  3000               	movlw	0
  2509     0F9B  00F8               	movwf	??___flge
  2510     0F9C  3000               	movlw	0
  2511     0F9D  00F9               	movwf	??___flge+1
  2512     0F9E  3000               	movlw	0
  2513     0F9F  00FA               	movwf	??___flge+2
  2514     0FA0  3080               	movlw	128
  2515     0FA1  00FB               	movwf	??___flge+3
  2516     0FA2  0870               	movf	___flge@ff1,w
  2517     0FA3  02F8               	subwf	??___flge,f
  2518     0FA4  0871               	movf	___flge@ff1+1,w
  2519     0FA5  1C03               	skipc
  2520     0FA6  0F71               	incfsz	___flge@ff1+1,w
  2521     0FA7  2FA9               	goto	u1531
  2522     0FA8  2FAA               	goto	u1532
  2523     0FA9                     u1531:
  2524     0FA9  02F9               	subwf	??___flge+1,f
  2525     0FAA                     u1532:
  2526     0FAA  0872               	movf	___flge@ff1+2,w
  2527     0FAB  1C03               	skipc
  2528     0FAC  0F72               	incfsz	___flge@ff1+2,w
  2529     0FAD  2FAF               	goto	u1533
  2530     0FAE  2FB0               	goto	u1534
  2531     0FAF                     u1533:
  2532     0FAF  02FA               	subwf	??___flge+2,f
  2533     0FB0                     u1534:
  2534     0FB0  0873               	movf	___flge@ff1+3,w
  2535     0FB1  1C03               	skipc
  2536     0FB2  0F73               	incfsz	___flge@ff1+3,w
  2537     0FB3  2FB5               	goto	u1535
  2538     0FB4  2FB6               	goto	u1536
  2539     0FB5                     u1535:
  2540     0FB5  02FB               	subwf	??___flge+3,f
  2541     0FB6                     u1536:
  2542     0FB6  087B               	movf	??___flge+3,w
  2543     0FB7  00F3               	movwf	___flge@ff1+3
  2544     0FB8  087A               	movf	??___flge+2,w
  2545     0FB9  00F2               	movwf	___flge@ff1+2
  2546     0FBA  0879               	movf	??___flge+1,w
  2547     0FBB  00F1               	movwf	___flge@ff1+1
  2548     0FBC  0878               	movf	??___flge,w
  2549     0FBD  00F0               	movwf	___flge@ff1
  2550     0FBE                     l1521:
  2551     0FBE  1FF7               	btfss	___flge@ff2+3,7
  2552     0FBF  2FC1               	goto	u1541
  2553     0FC0  2FC2               	goto	u1540
  2554     0FC1                     u1541:
  2555     0FC1  2FE6               	goto	l382
  2556     0FC2                     u1540:
  2557     0FC2                     l1523:
  2558     0FC2  3000               	movlw	0
  2559     0FC3  00F8               	movwf	??___flge
  2560     0FC4  3000               	movlw	0
  2561     0FC5  00F9               	movwf	??___flge+1
  2562     0FC6  3000               	movlw	0
  2563     0FC7  00FA               	movwf	??___flge+2
  2564     0FC8  3080               	movlw	128
  2565     0FC9  00FB               	movwf	??___flge+3
  2566     0FCA  0874               	movf	___flge@ff2,w
  2567     0FCB  02F8               	subwf	??___flge,f
  2568     0FCC  0875               	movf	___flge@ff2+1,w
  2569     0FCD  1C03               	skipc
  2570     0FCE  0F75               	incfsz	___flge@ff2+1,w
  2571     0FCF  2FD1               	goto	u1551
  2572     0FD0  2FD2               	goto	u1552
  2573     0FD1                     u1551:
  2574     0FD1  02F9               	subwf	??___flge+1,f
  2575     0FD2                     u1552:
  2576     0FD2  0876               	movf	___flge@ff2+2,w
  2577     0FD3  1C03               	skipc
  2578     0FD4  0F76               	incfsz	___flge@ff2+2,w
  2579     0FD5  2FD7               	goto	u1553
  2580     0FD6  2FD8               	goto	u1554
  2581     0FD7                     u1553:
  2582     0FD7  02FA               	subwf	??___flge+2,f
  2583     0FD8                     u1554:
  2584     0FD8  0877               	movf	___flge@ff2+3,w
  2585     0FD9  1C03               	skipc
  2586     0FDA  0F77               	incfsz	___flge@ff2+3,w
  2587     0FDB  2FDD               	goto	u1555
  2588     0FDC  2FDE               	goto	u1556
  2589     0FDD                     u1555:
  2590     0FDD  02FB               	subwf	??___flge+3,f
  2591     0FDE                     u1556:
  2592     0FDE  087B               	movf	??___flge+3,w
  2593     0FDF  00F7               	movwf	___flge@ff2+3
  2594     0FE0  087A               	movf	??___flge+2,w
  2595     0FE1  00F6               	movwf	___flge@ff2+2
  2596     0FE2  0879               	movf	??___flge+1,w
  2597     0FE3  00F5               	movwf	___flge@ff2+1
  2598     0FE4  0878               	movf	??___flge,w
  2599     0FE5  00F4               	movwf	___flge@ff2
  2600     0FE6                     l382:
  2601     0FE6  3080               	movlw	128
  2602     0FE7  06F3               	xorwf	___flge@ff1+3,f
  2603     0FE8  3080               	movlw	128
  2604     0FE9  06F7               	xorwf	___flge@ff2+3,f
  2605     0FEA  0877               	movf	___flge@ff2+3,w
  2606     0FEB  0273               	subwf	___flge@ff1+3,w
  2607     0FEC  1D03               	skipz
  2608     0FED  2FF8               	goto	u1565
  2609     0FEE  0876               	movf	___flge@ff2+2,w
  2610     0FEF  0272               	subwf	___flge@ff1+2,w
  2611     0FF0  1D03               	skipz
  2612     0FF1  2FF8               	goto	u1565
  2613     0FF2  0875               	movf	___flge@ff2+1,w
  2614     0FF3  0271               	subwf	___flge@ff1+1,w
  2615     0FF4  1D03               	skipz
  2616     0FF5  2FF8               	goto	u1565
  2617     0FF6  0874               	movf	___flge@ff2,w
  2618     0FF7  0270               	subwf	___flge@ff1,w
  2619     0FF8                     u1565:
  2620     0FF8  1803               	skipnc
  2621     0FF9  2FFB               	goto	u1561
  2622     0FFA  2FFC               	goto	u1560
  2623     0FFB                     u1561:
  2624     0FFB  2FFE               	goto	l1527
  2625     0FFC                     u1560:
  2626     0FFC                     l1525:
  2627     0FFC  1003               	clrc
  2628     0FFD  2FFF               	goto	l387
  2629     0FFE                     l1527:
  2630     0FFE  1403               	setc
  2631     0FFF                     l387:
  2632     0FFF  0008               	return
  2633     1000                     __end_of___flge:
  2634                           
  2635                           	psect	text10
  2636     03B2                     __ptext10:	
  2637 ;; *************** function ___fldiv *****************
  2638 ;; Defined at:
  2639 ;;		line 8 in file "C:\Program Files\Microchip\xc8\v2.45\pic\sources\c99\common\sprcdiv.c"
  2640 ;; Parameters:    Size  Location     Type
  2641 ;;  a               4    0[BANK0 ] unsigned char 
  2642 ;;  b               4    4[BANK0 ] unsigned char 
  2643 ;; Auto vars:     Size  Location     Type
  2644 ;;  grs             4   20[BANK0 ] unsigned long 
  2645 ;;  rem             4   13[BANK0 ] unsigned long 
  2646 ;;  new_exp         2   18[BANK0 ] short 
  2647 ;;  aexp            1   25[BANK0 ] unsigned char 
  2648 ;;  bexp            1   24[BANK0 ] unsigned char 
  2649 ;;  sign            1   17[BANK0 ] unsigned char 
  2650 ;; Return value:  Size  Location     Type
  2651 ;;                  4    0[BANK0 ] unsigned char 
  2652 ;; Registers used:
  2653 ;;		wreg, status,2, status,0, btemp+1
  2654 ;; Tracked objects:
  2655 ;;		On entry : 0/0
  2656 ;;		On exit  : 0/0
  2657 ;;		Unchanged: 0/0
  2658 ;; Data sizes:     COMMON   BANK0   BANK1   BANK3   BANK2
  2659 ;;      Params:         0       8       0       0       0
  2660 ;;      Locals:         0      13       0       0       0
  2661 ;;      Temps:          0       5       0       0       0
  2662 ;;      Totals:         0      26       0       0       0
  2663 ;;Total ram usage:       26 bytes
  2664 ;; Hardware stack levels used: 1
  2665 ;; This function calls:
  2666 ;;		Nothing
  2667 ;; This function is called by:
  2668 ;;		_indicator
  2669 ;; This function uses a non-reentrant model
  2670 ;;
  2671                           
  2672     03B2                     ___fldiv:	
  2673                           ;psect for function ___fldiv
  2674                           
  2675     03B2                     l1731:	
  2676                           ;incstack = 0
  2677                           ; Regs used in ___fldiv: [wreg+status,2+status,0+btemp+1]
  2678                           
  2679     03B2  1283               	bcf	3,5	;RP0=0, select bank0
  2680     03B3  1303               	bcf	3,6	;RP1=0, select bank0
  2681     03B4  0827               	movf	___fldiv@b+3,w
  2682     03B5  3980               	andlw	128
  2683     03B6  00B1               	movwf	___fldiv@sign
  2684     03B7                     l1733:
  2685     03B7  0827               	movf	___fldiv@b+3,w
  2686     03B8  00A8               	movwf	??___fldiv
  2687     03B9  0728               	addwf	??___fldiv,w
  2688     03BA  00B8               	movwf	___fldiv@bexp
  2689     03BB                     l1735:
  2690     03BB  1FA6               	btfss	___fldiv@b+2,7
  2691     03BC  2BBE               	goto	u2031
  2692     03BD  2BBF               	goto	u2030
  2693     03BE                     u2031:
  2694     03BE  2BC0               	goto	l1739
  2695     03BF                     u2030:
  2696     03BF                     l1737:
  2697     03BF  1438               	bsf	___fldiv@bexp,0
  2698     03C0                     l1739:
  2699     03C0  0838               	movf	___fldiv@bexp,w
  2700     03C1  1903               	btfsc	3,2
  2701     03C2  2BC4               	goto	u2041
  2702     03C3  2BC5               	goto	u2040
  2703     03C4                     u2041:
  2704     03C4  2BD5               	goto	l1749
  2705     03C5                     u2040:
  2706     03C5                     l1741:
  2707     03C5  0A38               	incf	___fldiv@bexp,w
  2708     03C6  1D03               	btfss	3,2
  2709     03C7  2BC9               	goto	u2051
  2710     03C8  2BCA               	goto	u2050
  2711     03C9                     u2051:
  2712     03C9  2BD2               	goto	l1745
  2713     03CA                     u2050:
  2714     03CA                     l1743:
  2715     03CA  3000               	movlw	0
  2716     03CB  00A7               	movwf	___fldiv@b+3
  2717     03CC  3000               	movlw	0
  2718     03CD  00A6               	movwf	___fldiv@b+2
  2719     03CE  3000               	movlw	0
  2720     03CF  00A5               	movwf	___fldiv@b+1
  2721     03D0  3000               	movlw	0
  2722     03D1  00A4               	movwf	___fldiv@b
  2723     03D2                     l1745:
  2724     03D2  17A6               	bsf	___fldiv@b+2,7
  2725     03D3                     l1747:
  2726     03D3  01A7               	clrf	___fldiv@b+3
  2727     03D4  2BDD               	goto	l1751
  2728     03D5                     l1749:
  2729     03D5  3000               	movlw	0
  2730     03D6  00A7               	movwf	___fldiv@b+3
  2731     03D7  3000               	movlw	0
  2732     03D8  00A6               	movwf	___fldiv@b+2
  2733     03D9  3000               	movlw	0
  2734     03DA  00A5               	movwf	___fldiv@b+1
  2735     03DB  3000               	movlw	0
  2736     03DC  00A4               	movwf	___fldiv@b
  2737     03DD                     l1751:
  2738     03DD  0823               	movf	___fldiv@a+3,w
  2739     03DE  3980               	andlw	128
  2740     03DF  00FF               	movwf	btemp+1
  2741     03E0  087F               	movf	btemp+1,w
  2742     03E1  06B1               	xorwf	___fldiv@sign,f
  2743     03E2                     l1753:
  2744     03E2  0823               	movf	___fldiv@a+3,w
  2745     03E3  00A8               	movwf	??___fldiv
  2746     03E4  0728               	addwf	??___fldiv,w
  2747     03E5  00B9               	movwf	___fldiv@aexp
  2748     03E6                     l1755:
  2749     03E6  1FA2               	btfss	___fldiv@a+2,7
  2750     03E7  2BE9               	goto	u2061
  2751     03E8  2BEA               	goto	u2060
  2752     03E9                     u2061:
  2753     03E9  2BEB               	goto	l1759
  2754     03EA                     u2060:
  2755     03EA                     l1757:
  2756     03EA  1439               	bsf	___fldiv@aexp,0
  2757     03EB                     l1759:
  2758     03EB  0839               	movf	___fldiv@aexp,w
  2759     03EC  1903               	btfsc	3,2
  2760     03ED  2BEF               	goto	u2071
  2761     03EE  2BF0               	goto	u2070
  2762     03EF                     u2071:
  2763     03EF  2C00               	goto	l1769
  2764     03F0                     u2070:
  2765     03F0                     l1761:
  2766     03F0  0A39               	incf	___fldiv@aexp,w
  2767     03F1  1D03               	btfss	3,2
  2768     03F2  2BF4               	goto	u2081
  2769     03F3  2BF5               	goto	u2080
  2770     03F4                     u2081:
  2771     03F4  2BFD               	goto	l1765
  2772     03F5                     u2080:
  2773     03F5                     l1763:
  2774     03F5  3000               	movlw	0
  2775     03F6  00A3               	movwf	___fldiv@a+3
  2776     03F7  3000               	movlw	0
  2777     03F8  00A2               	movwf	___fldiv@a+2
  2778     03F9  3000               	movlw	0
  2779     03FA  00A1               	movwf	___fldiv@a+1
  2780     03FB  3000               	movlw	0
  2781     03FC  00A0               	movwf	___fldiv@a
  2782     03FD                     l1765:
  2783     03FD  17A2               	bsf	___fldiv@a+2,7
  2784     03FE                     l1767:
  2785     03FE  01A3               	clrf	___fldiv@a+3
  2786     03FF  2C08               	goto	l558
  2787     0400                     l1769:
  2788     0400  3000               	movlw	0
  2789     0401  00A3               	movwf	___fldiv@a+3
  2790     0402  3000               	movlw	0
  2791     0403  00A2               	movwf	___fldiv@a+2
  2792     0404  3000               	movlw	0
  2793     0405  00A1               	movwf	___fldiv@a+1
  2794     0406  3000               	movlw	0
  2795     0407  00A0               	movwf	___fldiv@a
  2796     0408                     l558:
  2797     0408  0823               	movf	___fldiv@a+3,w
  2798     0409  0422               	iorwf	___fldiv@a+2,w
  2799     040A  0421               	iorwf	___fldiv@a+1,w
  2800     040B  0420               	iorwf	___fldiv@a,w
  2801     040C  1D03               	skipz
  2802     040D  2C0F               	goto	u2091
  2803     040E  2C10               	goto	u2090
  2804     040F                     u2091:
  2805     040F  2C29               	goto	l1779
  2806     0410                     u2090:
  2807     0410                     l1771:
  2808     0410  3000               	movlw	0
  2809     0411  00A7               	movwf	___fldiv@b+3
  2810     0412  3000               	movlw	0
  2811     0413  00A6               	movwf	___fldiv@b+2
  2812     0414  3000               	movlw	0
  2813     0415  00A5               	movwf	___fldiv@b+1
  2814     0416  3000               	movlw	0
  2815     0417  00A4               	movwf	___fldiv@b
  2816     0418  3080               	movlw	128
  2817     0419  04A6               	iorwf	___fldiv@b+2,f
  2818     041A  307F               	movlw	127
  2819     041B  04A7               	iorwf	___fldiv@b+3,f
  2820     041C                     l1773:
  2821     041C  0831               	movf	___fldiv@sign,w
  2822     041D  00FF               	movwf	btemp+1
  2823     041E  087F               	movf	btemp+1,w
  2824     041F  04A7               	iorwf	___fldiv@b+3,f
  2825     0420                     l1775:
  2826     0420  0827               	movf	___fldiv@b+3,w
  2827     0421  00A3               	movwf	?___fldiv+3
  2828     0422  0826               	movf	___fldiv@b+2,w
  2829     0423  00A2               	movwf	?___fldiv+2
  2830     0424  0825               	movf	___fldiv@b+1,w
  2831     0425  00A1               	movwf	?___fldiv+1
  2832     0426  0824               	movf	___fldiv@b,w
  2833     0427  00A0               	movwf	?___fldiv
  2834     0428  2D80               	goto	l560
  2835     0429                     l1779:
  2836     0429  0838               	movf	___fldiv@bexp,w
  2837     042A  1D03               	btfss	3,2
  2838     042B  2C2D               	goto	u2101
  2839     042C  2C2E               	goto	u2100
  2840     042D                     u2101:
  2841     042D  2C37               	goto	l1785
  2842     042E                     u2100:
  2843     042E                     l1781:
  2844     042E  3000               	movlw	0
  2845     042F  00A3               	movwf	?___fldiv+3
  2846     0430  3000               	movlw	0
  2847     0431  00A2               	movwf	?___fldiv+2
  2848     0432  3000               	movlw	0
  2849     0433  00A1               	movwf	?___fldiv+1
  2850     0434  3000               	movlw	0
  2851     0435  00A0               	movwf	?___fldiv
  2852     0436  2D80               	goto	l560
  2853     0437                     l1785:
  2854     0437  0838               	movf	___fldiv@bexp,w
  2855     0438  00A8               	movwf	??___fldiv
  2856     0439  01A9               	clrf	??___fldiv+1
  2857     043A  0829               	movf	??___fldiv+1,w
  2858     043B  00AB               	movwf	??___fldiv+3
  2859     043C  0839               	movf	___fldiv@aexp,w
  2860     043D  0228               	subwf	??___fldiv,w
  2861     043E  00AA               	movwf	??___fldiv+2
  2862     043F  1C03               	skipc
  2863     0440  03AB               	decf	??___fldiv+3,f
  2864     0441  082A               	movf	??___fldiv+2,w
  2865     0442  3E7F               	addlw	127
  2866     0443  00B2               	movwf	___fldiv@new_exp
  2867     0444  082B               	movf	??___fldiv+3,w
  2868     0445  1803               	skipnc
  2869     0446  3E01               	addlw	1
  2870     0447  3E00               	addlw	0
  2871     0448  00B3               	movwf	___fldiv@new_exp+1
  2872     0449                     l1787:
  2873     0449  0827               	movf	___fldiv@b+3,w
  2874     044A  00B0               	movwf	___fldiv@rem+3
  2875     044B  0826               	movf	___fldiv@b+2,w
  2876     044C  00AF               	movwf	___fldiv@rem+2
  2877     044D  0825               	movf	___fldiv@b+1,w
  2878     044E  00AE               	movwf	___fldiv@rem+1
  2879     044F  0824               	movf	___fldiv@b,w
  2880     0450  00AD               	movwf	___fldiv@rem
  2881     0451                     l1789:
  2882     0451  3000               	movlw	0
  2883     0452  00A7               	movwf	___fldiv@b+3
  2884     0453  3000               	movlw	0
  2885     0454  00A6               	movwf	___fldiv@b+2
  2886     0455  3000               	movlw	0
  2887     0456  00A5               	movwf	___fldiv@b+1
  2888     0457  3000               	movlw	0
  2889     0458  00A4               	movwf	___fldiv@b
  2890     0459                     l1791:
  2891     0459  3000               	movlw	0
  2892     045A  00B7               	movwf	___fldiv@grs+3
  2893     045B  3000               	movlw	0
  2894     045C  00B6               	movwf	___fldiv@grs+2
  2895     045D  3000               	movlw	0
  2896     045E  00B5               	movwf	___fldiv@grs+1
  2897     045F  3000               	movlw	0
  2898     0460  00B4               	movwf	___fldiv@grs
  2899     0461                     l1793:
  2900     0461  01B9               	clrf	___fldiv@aexp
  2901     0462  2CAD               	goto	l1813
  2902     0463                     l1795:
  2903     0463  0839               	movf	___fldiv@aexp,w
  2904     0464  1903               	btfsc	3,2
  2905     0465  2C67               	goto	u2111
  2906     0466  2C68               	goto	u2110
  2907     0467                     u2111:
  2908     0467  2C88               	goto	l1805
  2909     0468                     u2110:
  2910     0468                     l1797:
  2911     0468  3001               	movlw	1
  2912     0469  00A8               	movwf	??___fldiv
  2913     046A                     u2125:
  2914     046A  1003               	clrc
  2915     046B  0DAD               	rlf	___fldiv@rem,f
  2916     046C  0DAE               	rlf	___fldiv@rem+1,f
  2917     046D  0DAF               	rlf	___fldiv@rem+2,f
  2918     046E  0DB0               	rlf	___fldiv@rem+3,f
  2919     046F  0BA8               	decfsz	??___fldiv,f
  2920     0470  2C6A               	goto	u2125
  2921     0471  3001               	movlw	1
  2922     0472  00A8               	movwf	??___fldiv
  2923     0473                     u2135:
  2924     0473  1003               	clrc
  2925     0474  0DA4               	rlf	___fldiv@b,f
  2926     0475  0DA5               	rlf	___fldiv@b+1,f
  2927     0476  0DA6               	rlf	___fldiv@b+2,f
  2928     0477  0DA7               	rlf	___fldiv@b+3,f
  2929     0478  0BA8               	decfsz	??___fldiv,f
  2930     0479  2C73               	goto	u2135
  2931     047A                     l1799:
  2932     047A  1FB7               	btfss	___fldiv@grs+3,7
  2933     047B  2C7D               	goto	u2141
  2934     047C  2C7E               	goto	u2140
  2935     047D                     u2141:
  2936     047D  2C7F               	goto	l1803
  2937     047E                     u2140:
  2938     047E                     l1801:
  2939     047E  1424               	bsf	___fldiv@b,0
  2940     047F                     l1803:
  2941     047F  3001               	movlw	1
  2942     0480  00A8               	movwf	??___fldiv
  2943     0481                     u2155:
  2944     0481  1003               	clrc
  2945     0482  0DB4               	rlf	___fldiv@grs,f
  2946     0483  0DB5               	rlf	___fldiv@grs+1,f
  2947     0484  0DB6               	rlf	___fldiv@grs+2,f
  2948     0485  0DB7               	rlf	___fldiv@grs+3,f
  2949     0486  0BA8               	decfsz	??___fldiv,f
  2950     0487  2C81               	goto	u2155
  2951     0488                     l1805:
  2952     0488  0823               	movf	___fldiv@a+3,w
  2953     0489  0230               	subwf	___fldiv@rem+3,w
  2954     048A  1D03               	skipz
  2955     048B  2C96               	goto	u2165
  2956     048C  0822               	movf	___fldiv@a+2,w
  2957     048D  022F               	subwf	___fldiv@rem+2,w
  2958     048E  1D03               	skipz
  2959     048F  2C96               	goto	u2165
  2960     0490  0821               	movf	___fldiv@a+1,w
  2961     0491  022E               	subwf	___fldiv@rem+1,w
  2962     0492  1D03               	skipz
  2963     0493  2C96               	goto	u2165
  2964     0494  0820               	movf	___fldiv@a,w
  2965     0495  022D               	subwf	___fldiv@rem,w
  2966     0496                     u2165:
  2967     0496  1C03               	skipc
  2968     0497  2C99               	goto	u2161
  2969     0498  2C9A               	goto	u2160
  2970     0499                     u2161:
  2971     0499  2CA9               	goto	l1811
  2972     049A                     u2160:
  2973     049A                     l1807:
  2974     049A  1737               	bsf	___fldiv@grs+3,6
  2975     049B                     l1809:
  2976     049B  0820               	movf	___fldiv@a,w
  2977     049C  02AD               	subwf	___fldiv@rem,f
  2978     049D  0821               	movf	___fldiv@a+1,w
  2979     049E  1C03               	skipc
  2980     049F  0F21               	incfsz	___fldiv@a+1,w
  2981     04A0  02AE               	subwf	___fldiv@rem+1,f
  2982     04A1  0822               	movf	___fldiv@a+2,w
  2983     04A2  1C03               	skipc
  2984     04A3  0F22               	incfsz	___fldiv@a+2,w
  2985     04A4  02AF               	subwf	___fldiv@rem+2,f
  2986     04A5  0823               	movf	___fldiv@a+3,w
  2987     04A6  1C03               	skipc
  2988     04A7  0F23               	incfsz	___fldiv@a+3,w
  2989     04A8  02B0               	subwf	___fldiv@rem+3,f
  2990     04A9                     l1811:
  2991     04A9  3001               	movlw	1
  2992     04AA  00FF               	movwf	btemp+1
  2993     04AB  087F               	movf	btemp+1,w
  2994     04AC  07B9               	addwf	___fldiv@aexp,f
  2995     04AD                     l1813:
  2996     04AD  301A               	movlw	26
  2997     04AE  0239               	subwf	___fldiv@aexp,w
  2998     04AF  1C03               	skipc
  2999     04B0  2CB2               	goto	u2171
  3000     04B1  2CB3               	goto	u2170
  3001     04B2                     u2171:
  3002     04B2  2C63               	goto	l1795
  3003     04B3                     u2170:
  3004     04B3                     l1815:
  3005     04B3  0830               	movf	___fldiv@rem+3,w
  3006     04B4  042F               	iorwf	___fldiv@rem+2,w
  3007     04B5  042E               	iorwf	___fldiv@rem+1,w
  3008     04B6  042D               	iorwf	___fldiv@rem,w
  3009     04B7  1903               	skipnz
  3010     04B8  2CBA               	goto	u2181
  3011     04B9  2CBB               	goto	u2180
  3012     04BA                     u2181:
  3013     04BA  2CDA               	goto	l1829
  3014     04BB                     u2180:
  3015     04BB                     l1817:
  3016     04BB  1434               	bsf	___fldiv@grs,0
  3017     04BC  2CDA               	goto	l1829
  3018     04BD                     l1819:
  3019     04BD  3001               	movlw	1
  3020     04BE  00A8               	movwf	??___fldiv
  3021     04BF                     u2195:
  3022     04BF  1003               	clrc
  3023     04C0  0DA4               	rlf	___fldiv@b,f
  3024     04C1  0DA5               	rlf	___fldiv@b+1,f
  3025     04C2  0DA6               	rlf	___fldiv@b+2,f
  3026     04C3  0DA7               	rlf	___fldiv@b+3,f
  3027     04C4  0BA8               	decfsz	??___fldiv,f
  3028     04C5  2CBF               	goto	u2195
  3029     04C6                     l1821:
  3030     04C6  1FB7               	btfss	___fldiv@grs+3,7
  3031     04C7  2CC9               	goto	u2201
  3032     04C8  2CCA               	goto	u2200
  3033     04C9                     u2201:
  3034     04C9  2CCB               	goto	l1825
  3035     04CA                     u2200:
  3036     04CA                     l1823:
  3037     04CA  1424               	bsf	___fldiv@b,0
  3038     04CB                     l1825:
  3039     04CB  3001               	movlw	1
  3040     04CC  00A8               	movwf	??___fldiv
  3041     04CD                     u2215:
  3042     04CD  1003               	clrc
  3043     04CE  0DB4               	rlf	___fldiv@grs,f
  3044     04CF  0DB5               	rlf	___fldiv@grs+1,f
  3045     04D0  0DB6               	rlf	___fldiv@grs+2,f
  3046     04D1  0DB7               	rlf	___fldiv@grs+3,f
  3047     04D2  0BA8               	decfsz	??___fldiv,f
  3048     04D3  2CCD               	goto	u2215
  3049     04D4                     l1827:
  3050     04D4  30FF               	movlw	255
  3051     04D5  07B2               	addwf	___fldiv@new_exp,f
  3052     04D6  1803               	skipnc
  3053     04D7  0AB3               	incf	___fldiv@new_exp+1,f
  3054     04D8  30FF               	movlw	255
  3055     04D9  07B3               	addwf	___fldiv@new_exp+1,f
  3056     04DA                     l1829:
  3057     04DA  1FA6               	btfss	___fldiv@b+2,7
  3058     04DB  2CDD               	goto	u2221
  3059     04DC  2CDE               	goto	u2220
  3060     04DD                     u2221:
  3061     04DD  2CBD               	goto	l1819
  3062     04DE                     u2220:
  3063     04DE                     l1831:
  3064     04DE  01B9               	clrf	___fldiv@aexp
  3065     04DF                     l1833:
  3066     04DF  1FB7               	btfss	___fldiv@grs+3,7
  3067     04E0  2CE2               	goto	u2231
  3068     04E1  2CE3               	goto	u2230
  3069     04E2                     u2231:
  3070     04E2  2CFF               	goto	l1841
  3071     04E3                     u2230:
  3072     04E3                     l1835:
  3073     04E3  30FF               	movlw	255
  3074     04E4  0534               	andwf	___fldiv@grs,w
  3075     04E5  00A8               	movwf	??___fldiv
  3076     04E6  30FF               	movlw	255
  3077     04E7  0535               	andwf	___fldiv@grs+1,w
  3078     04E8  00A9               	movwf	??___fldiv+1
  3079     04E9  30FF               	movlw	255
  3080     04EA  0536               	andwf	___fldiv@grs+2,w
  3081     04EB  00AA               	movwf	??___fldiv+2
  3082     04EC  307F               	movlw	127
  3083     04ED  0537               	andwf	___fldiv@grs+3,w
  3084     04EE  00AB               	movwf	??___fldiv+3
  3085     04EF  082B               	movf	??___fldiv+3,w
  3086     04F0  042A               	iorwf	??___fldiv+2,w
  3087     04F1  0429               	iorwf	??___fldiv+1,w
  3088     04F2  0428               	iorwf	??___fldiv,w
  3089     04F3  1903               	skipnz
  3090     04F4  2CF6               	goto	u2241
  3091     04F5  2CF7               	goto	u2240
  3092     04F6                     u2241:
  3093     04F6  2CFA               	goto	l574
  3094     04F7                     u2240:
  3095     04F7                     l1837:
  3096     04F7  01B9               	clrf	___fldiv@aexp
  3097     04F8  0AB9               	incf	___fldiv@aexp,f
  3098     04F9  2CFF               	goto	l1841
  3099     04FA                     l574:
  3100     04FA  1C24               	btfss	___fldiv@b,0
  3101     04FB  2CFD               	goto	u2251
  3102     04FC  2CFE               	goto	u2250
  3103     04FD                     u2251:
  3104     04FD  2CFF               	goto	l1841
  3105     04FE                     u2250:
  3106     04FE  2CF7               	goto	l1837
  3107     04FF                     l1841:
  3108     04FF  0839               	movf	___fldiv@aexp,w
  3109     0500  1903               	btfsc	3,2
  3110     0501  2D03               	goto	u2261
  3111     0502  2D04               	goto	u2260
  3112     0503                     u2261:
  3113     0503  2D35               	goto	l1851
  3114     0504                     u2260:
  3115     0504                     l1843:
  3116     0504  3001               	movlw	1
  3117     0505  07A4               	addwf	___fldiv@b,f
  3118     0506  3000               	movlw	0
  3119     0507  1803               	skipnc
  3120     0508  3001               	movlw	1
  3121     0509  07A5               	addwf	___fldiv@b+1,f
  3122     050A  3000               	movlw	0
  3123     050B  1803               	skipnc
  3124     050C  3001               	movlw	1
  3125     050D  07A6               	addwf	___fldiv@b+2,f
  3126     050E  3000               	movlw	0
  3127     050F  1803               	skipnc
  3128     0510  3001               	movlw	1
  3129     0511  07A7               	addwf	___fldiv@b+3,f
  3130     0512                     l1845:
  3131     0512  1C27               	btfss	___fldiv@b+3,0
  3132     0513  2D15               	goto	u2271
  3133     0514  2D16               	goto	u2270
  3134     0515                     u2271:
  3135     0515  2D35               	goto	l1851
  3136     0516                     u2270:
  3137     0516                     l1847:
  3138     0516  0824               	movf	___fldiv@b,w
  3139     0517  00A8               	movwf	??___fldiv
  3140     0518  0825               	movf	___fldiv@b+1,w
  3141     0519  00A9               	movwf	??___fldiv+1
  3142     051A  0826               	movf	___fldiv@b+2,w
  3143     051B  00AA               	movwf	??___fldiv+2
  3144     051C  0827               	movf	___fldiv@b+3,w
  3145     051D  00AB               	movwf	??___fldiv+3
  3146     051E  3001               	movlw	1
  3147     051F  00AC               	movwf	??___fldiv+4
  3148     0520                     u2285:
  3149     0520  0D2B               	rlf	??___fldiv+3,w
  3150     0521  0CAB               	rrf	??___fldiv+3,f
  3151     0522  0CAA               	rrf	??___fldiv+2,f
  3152     0523  0CA9               	rrf	??___fldiv+1,f
  3153     0524  0CA8               	rrf	??___fldiv,f
  3154     0525                     u2280:
  3155     0525  0BAC               	decfsz	??___fldiv+4,f
  3156     0526  2D20               	goto	u2285
  3157     0527  082B               	movf	??___fldiv+3,w
  3158     0528  00A7               	movwf	___fldiv@b+3
  3159     0529  082A               	movf	??___fldiv+2,w
  3160     052A  00A6               	movwf	___fldiv@b+2
  3161     052B  0829               	movf	??___fldiv+1,w
  3162     052C  00A5               	movwf	___fldiv@b+1
  3163     052D  0828               	movf	??___fldiv,w
  3164     052E  00A4               	movwf	___fldiv@b
  3165     052F                     l1849:
  3166     052F  3001               	movlw	1
  3167     0530  07B2               	addwf	___fldiv@new_exp,f
  3168     0531  1803               	skipnc
  3169     0532  0AB3               	incf	___fldiv@new_exp+1,f
  3170     0533  3000               	movlw	0
  3171     0534  07B3               	addwf	___fldiv@new_exp+1,f
  3172     0535                     l1851:
  3173     0535  0833               	movf	___fldiv@new_exp+1,w
  3174     0536  3A80               	xorlw	128
  3175     0537  00FF               	movwf	btemp+1
  3176     0538  3080               	movlw	128
  3177     0539  027F               	subwf	btemp+1,w
  3178     053A  1D03               	skipz
  3179     053B  2D3E               	goto	u2295
  3180     053C  30FF               	movlw	255
  3181     053D  0232               	subwf	___fldiv@new_exp,w
  3182     053E                     u2295:
  3183     053E  1C03               	skipc
  3184     053F  2D41               	goto	u2291
  3185     0540  2D42               	goto	u2290
  3186     0541                     u2291:
  3187     0541  2D50               	goto	l1855
  3188     0542                     u2290:
  3189     0542                     l1853:
  3190     0542  30FF               	movlw	255
  3191     0543  1283               	bcf	3,5	;RP0=0, select bank0
  3192     0544  1303               	bcf	3,6	;RP1=0, select bank0
  3193     0545  00B2               	movwf	___fldiv@new_exp
  3194     0546  3000               	movlw	0
  3195     0547  00B3               	movwf	___fldiv@new_exp+1
  3196     0548  3000               	movlw	0
  3197     0549  00A7               	movwf	___fldiv@b+3
  3198     054A  3000               	movlw	0
  3199     054B  00A6               	movwf	___fldiv@b+2
  3200     054C  3000               	movlw	0
  3201     054D  00A5               	movwf	___fldiv@b+1
  3202     054E  3000               	movlw	0
  3203     054F  00A4               	movwf	___fldiv@b
  3204     0550                     l1855:
  3205     0550  1283               	bcf	3,5	;RP0=0, select bank0
  3206     0551  1303               	bcf	3,6	;RP1=0, select bank0
  3207     0552  0833               	movf	___fldiv@new_exp+1,w
  3208     0553  3A80               	xorlw	128
  3209     0554  00FF               	movwf	btemp+1
  3210     0555  3080               	movlw	128
  3211     0556  027F               	subwf	btemp+1,w
  3212     0557  1D03               	skipz
  3213     0558  2D5B               	goto	u2305
  3214     0559  3001               	movlw	1
  3215     055A  0232               	subwf	___fldiv@new_exp,w
  3216     055B                     u2305:
  3217     055B  1803               	skipnc
  3218     055C  2D5E               	goto	u2301
  3219     055D  2D5F               	goto	u2300
  3220     055E                     u2301:
  3221     055E  2D6C               	goto	l580
  3222     055F                     u2300:
  3223     055F                     l1857:
  3224     055F  1283               	bcf	3,5	;RP0=0, select bank0
  3225     0560  1303               	bcf	3,6	;RP1=0, select bank0
  3226     0561  01B2               	clrf	___fldiv@new_exp
  3227     0562  01B3               	clrf	___fldiv@new_exp+1
  3228     0563                     l1859:
  3229     0563  3000               	movlw	0
  3230     0564  00A7               	movwf	___fldiv@b+3
  3231     0565  3000               	movlw	0
  3232     0566  00A6               	movwf	___fldiv@b+2
  3233     0567  3000               	movlw	0
  3234     0568  00A5               	movwf	___fldiv@b+1
  3235     0569  3000               	movlw	0
  3236     056A  00A4               	movwf	___fldiv@b
  3237     056B                     l1861:
  3238     056B  01B1               	clrf	___fldiv@sign
  3239     056C                     l580:
  3240     056C  1283               	bcf	3,5	;RP0=0, select bank0
  3241     056D  1303               	bcf	3,6	;RP1=0, select bank0
  3242     056E  0832               	movf	___fldiv@new_exp,w
  3243     056F  00B8               	movwf	___fldiv@bexp
  3244     0570                     l1863:
  3245     0570  1C38               	btfss	___fldiv@bexp,0
  3246     0571  2D73               	goto	u2311
  3247     0572  2D74               	goto	u2310
  3248     0573                     u2311:
  3249     0573  2D76               	goto	l1867
  3250     0574                     u2310:
  3251     0574                     l1865:
  3252     0574  17A6               	bsf	___fldiv@b+2,7
  3253     0575  2D7A               	goto	l1869
  3254     0576                     l1867:
  3255     0576  307F               	movlw	127
  3256     0577  00FF               	movwf	btemp+1
  3257     0578  087F               	movf	btemp+1,w
  3258     0579  05A6               	andwf	___fldiv@b+2,f
  3259     057A                     l1869:
  3260     057A  0838               	movf	___fldiv@bexp,w
  3261     057B  00A8               	movwf	??___fldiv
  3262     057C  1003               	clrc
  3263     057D  0C28               	rrf	??___fldiv,w
  3264     057E  00A7               	movwf	___fldiv@b+3
  3265     057F  2C1C               	goto	l1773
  3266     0580                     l560:
  3267     0580  0008               	return
  3268     0581                     __end_of___fldiv:
  3269                           
  3270                           	psect	text11
  3271     0581                     __ptext11:	
  3272 ;; *************** function ___fladd *****************
  3273 ;; Defined at:
  3274 ;;		line 10 in file "C:\Program Files\Microchip\xc8\v2.45\pic\sources\c99\common\sprcadd.c"
  3275 ;; Parameters:    Size  Location     Type
  3276 ;;  b               4    0[BANK0 ] unsigned char 
  3277 ;;  a               4    4[BANK0 ] unsigned char 
  3278 ;; Auto vars:     Size  Location     Type
  3279 ;;  grs             1   19[BANK0 ] unsigned char 
  3280 ;;  bexp            1   18[BANK0 ] unsigned char 
  3281 ;;  aexp            1   17[BANK0 ] unsigned char 
  3282 ;;  signs           1   16[BANK0 ] unsigned char 
  3283 ;; Return value:  Size  Location     Type
  3284 ;;                  4    0[BANK0 ] unsigned char 
  3285 ;; Registers used:
  3286 ;;		wreg, status,2, status,0, btemp+1
  3287 ;; Tracked objects:
  3288 ;;		On entry : 0/0
  3289 ;;		On exit  : 0/0
  3290 ;;		Unchanged: 0/0
  3291 ;; Data sizes:     COMMON   BANK0   BANK1   BANK3   BANK2
  3292 ;;      Params:         0       8       0       0       0
  3293 ;;      Locals:         0       4       0       0       0
  3294 ;;      Temps:          0       8       0       0       0
  3295 ;;      Totals:         0      20       0       0       0
  3296 ;;Total ram usage:       20 bytes
  3297 ;; Hardware stack levels used: 1
  3298 ;; This function calls:
  3299 ;;		Nothing
  3300 ;; This function is called by:
  3301 ;;		_indicator
  3302 ;; This function uses a non-reentrant model
  3303 ;;
  3304                           
  3305     0581                     ___fladd:	
  3306                           ;psect for function ___fladd
  3307                           
  3308     0581                     l1531:	
  3309                           ;incstack = 0
  3310                           ; Regs used in ___fladd: [wreg+status,2+status,0+btemp+1]
  3311                           
  3312     0581  1283               	bcf	3,5	;RP0=0, select bank0
  3313     0582  1303               	bcf	3,6	;RP1=0, select bank0
  3314     0583  0823               	movf	___fladd@b+3,w
  3315     0584  3980               	andlw	128
  3316     0585  00B0               	movwf	___fladd@signs
  3317     0586                     l1533:
  3318     0586  0823               	movf	___fladd@b+3,w
  3319     0587  00A8               	movwf	??___fladd
  3320     0588  0728               	addwf	??___fladd,w
  3321     0589  00B2               	movwf	___fladd@bexp
  3322     058A                     l1535:
  3323     058A  1FA2               	btfss	___fladd@b+2,7
  3324     058B  2D8D               	goto	u1571
  3325     058C  2D8E               	goto	u1570
  3326     058D                     u1571:
  3327     058D  2D8F               	goto	l1539
  3328     058E                     u1570:
  3329     058E                     l1537:
  3330     058E  1432               	bsf	___fladd@bexp,0
  3331     058F                     l1539:
  3332     058F  0832               	movf	___fladd@bexp,w
  3333     0590  1903               	btfsc	3,2
  3334     0591  2D93               	goto	u1581
  3335     0592  2D94               	goto	u1580
  3336     0593                     u1581:
  3337     0593  2DA4               	goto	l1549
  3338     0594                     u1580:
  3339     0594                     l1541:
  3340     0594  0A32               	incf	___fladd@bexp,w
  3341     0595  1D03               	btfss	3,2
  3342     0596  2D98               	goto	u1591
  3343     0597  2D99               	goto	u1590
  3344     0598                     u1591:
  3345     0598  2DA1               	goto	l1545
  3346     0599                     u1590:
  3347     0599                     l1543:
  3348     0599  3000               	movlw	0
  3349     059A  00A3               	movwf	___fladd@b+3
  3350     059B  3000               	movlw	0
  3351     059C  00A2               	movwf	___fladd@b+2
  3352     059D  3000               	movlw	0
  3353     059E  00A1               	movwf	___fladd@b+1
  3354     059F  3000               	movlw	0
  3355     05A0  00A0               	movwf	___fladd@b
  3356     05A1                     l1545:
  3357     05A1  17A2               	bsf	___fladd@b+2,7
  3358     05A2                     l1547:
  3359     05A2  01A3               	clrf	___fladd@b+3
  3360     05A3  2DAC               	goto	l1551
  3361     05A4                     l1549:
  3362     05A4  3000               	movlw	0
  3363     05A5  00A3               	movwf	___fladd@b+3
  3364     05A6  3000               	movlw	0
  3365     05A7  00A2               	movwf	___fladd@b+2
  3366     05A8  3000               	movlw	0
  3367     05A9  00A1               	movwf	___fladd@b+1
  3368     05AA  3000               	movlw	0
  3369     05AB  00A0               	movwf	___fladd@b
  3370     05AC                     l1551:
  3371     05AC  0827               	movf	___fladd@a+3,w
  3372     05AD  3980               	andlw	128
  3373     05AE  00B1               	movwf	___fladd@aexp
  3374     05AF                     l1553:
  3375     05AF  0831               	movf	___fladd@aexp,w
  3376     05B0  0630               	xorwf	___fladd@signs,w
  3377     05B1  1903               	skipnz
  3378     05B2  2DB4               	goto	u1601
  3379     05B3  2DB5               	goto	u1600
  3380     05B4                     u1601:
  3381     05B4  2DB6               	goto	l1557
  3382     05B5                     u1600:
  3383     05B5                     l1555:
  3384     05B5  1730               	bsf	___fladd@signs,6
  3385     05B6                     l1557:
  3386     05B6  0827               	movf	___fladd@a+3,w
  3387     05B7  00A8               	movwf	??___fladd
  3388     05B8  0728               	addwf	??___fladd,w
  3389     05B9  00B1               	movwf	___fladd@aexp
  3390     05BA                     l1559:
  3391     05BA  1FA6               	btfss	___fladd@a+2,7
  3392     05BB  2DBD               	goto	u1611
  3393     05BC  2DBE               	goto	u1610
  3394     05BD                     u1611:
  3395     05BD  2DBF               	goto	l1563
  3396     05BE                     u1610:
  3397     05BE                     l1561:
  3398     05BE  1431               	bsf	___fladd@aexp,0
  3399     05BF                     l1563:
  3400     05BF  0831               	movf	___fladd@aexp,w
  3401     05C0  1903               	btfsc	3,2
  3402     05C1  2DC3               	goto	u1621
  3403     05C2  2DC4               	goto	u1620
  3404     05C3                     u1621:
  3405     05C3  2DD4               	goto	l1573
  3406     05C4                     u1620:
  3407     05C4                     l1565:
  3408     05C4  0A31               	incf	___fladd@aexp,w
  3409     05C5  1D03               	btfss	3,2
  3410     05C6  2DC8               	goto	u1631
  3411     05C7  2DC9               	goto	u1630
  3412     05C8                     u1631:
  3413     05C8  2DD1               	goto	l1569
  3414     05C9                     u1630:
  3415     05C9                     l1567:
  3416     05C9  3000               	movlw	0
  3417     05CA  00A7               	movwf	___fladd@a+3
  3418     05CB  3000               	movlw	0
  3419     05CC  00A6               	movwf	___fladd@a+2
  3420     05CD  3000               	movlw	0
  3421     05CE  00A5               	movwf	___fladd@a+1
  3422     05CF  3000               	movlw	0
  3423     05D0  00A4               	movwf	___fladd@a
  3424     05D1                     l1569:
  3425     05D1  17A6               	bsf	___fladd@a+2,7
  3426     05D2                     l1571:
  3427     05D2  01A7               	clrf	___fladd@a+3
  3428     05D3  2DDC               	goto	l502
  3429     05D4                     l1573:
  3430     05D4  3000               	movlw	0
  3431     05D5  00A7               	movwf	___fladd@a+3
  3432     05D6  3000               	movlw	0
  3433     05D7  00A6               	movwf	___fladd@a+2
  3434     05D8  3000               	movlw	0
  3435     05D9  00A5               	movwf	___fladd@a+1
  3436     05DA  3000               	movlw	0
  3437     05DB  00A4               	movwf	___fladd@a
  3438     05DC                     l502:
  3439     05DC  0832               	movf	___fladd@bexp,w
  3440     05DD  0231               	subwf	___fladd@aexp,w
  3441     05DE  1803               	skipnc
  3442     05DF  2DE1               	goto	u1641
  3443     05E0  2DE2               	goto	u1640
  3444     05E1                     u1641:
  3445     05E1  2E08               	goto	l1609
  3446     05E2                     u1640:
  3447     05E2                     l1575:
  3448     05E2  1F30               	btfss	___fladd@signs,6
  3449     05E3  2DE5               	goto	u1651
  3450     05E4  2DE6               	goto	u1650
  3451     05E5                     u1651:
  3452     05E5  2DEA               	goto	l1579
  3453     05E6                     u1650:
  3454     05E6                     l1577:
  3455     05E6  3080               	movlw	128
  3456     05E7  00FF               	movwf	btemp+1
  3457     05E8  087F               	movf	btemp+1,w
  3458     05E9  06B0               	xorwf	___fladd@signs,f
  3459     05EA                     l1579:
  3460     05EA  0832               	movf	___fladd@bexp,w
  3461     05EB  00B3               	movwf	___fladd@grs
  3462     05EC                     l1581:
  3463     05EC  0831               	movf	___fladd@aexp,w
  3464     05ED  00B2               	movwf	___fladd@bexp
  3465     05EE                     l1583:
  3466     05EE  0833               	movf	___fladd@grs,w
  3467     05EF  00B1               	movwf	___fladd@aexp
  3468     05F0                     l1585:
  3469     05F0  0820               	movf	___fladd@b,w
  3470     05F1  00B3               	movwf	___fladd@grs
  3471     05F2                     l1587:
  3472     05F2  0824               	movf	___fladd@a,w
  3473     05F3  00A0               	movwf	___fladd@b
  3474     05F4                     l1589:
  3475     05F4  0833               	movf	___fladd@grs,w
  3476     05F5  00A4               	movwf	___fladd@a
  3477     05F6                     l1591:
  3478     05F6  0821               	movf	___fladd@b+1,w
  3479     05F7  00B3               	movwf	___fladd@grs
  3480     05F8                     l1593:
  3481     05F8  0825               	movf	___fladd@a+1,w
  3482     05F9  00A1               	movwf	___fladd@b+1
  3483     05FA                     l1595:
  3484     05FA  0833               	movf	___fladd@grs,w
  3485     05FB  00A5               	movwf	___fladd@a+1
  3486     05FC                     l1597:
  3487     05FC  0822               	movf	___fladd@b+2,w
  3488     05FD  00B3               	movwf	___fladd@grs
  3489     05FE                     l1599:
  3490     05FE  0826               	movf	___fladd@a+2,w
  3491     05FF  00A2               	movwf	___fladd@b+2
  3492     0600                     l1601:
  3493     0600  0833               	movf	___fladd@grs,w
  3494     0601  00A6               	movwf	___fladd@a+2
  3495     0602                     l1603:
  3496     0602  0823               	movf	___fladd@b+3,w
  3497     0603  00B3               	movwf	___fladd@grs
  3498     0604                     l1605:
  3499     0604  0827               	movf	___fladd@a+3,w
  3500     0605  00A3               	movwf	___fladd@b+3
  3501     0606                     l1607:
  3502     0606  0833               	movf	___fladd@grs,w
  3503     0607  00A7               	movwf	___fladd@a+3
  3504     0608                     l1609:
  3505     0608  01B3               	clrf	___fladd@grs
  3506     0609                     l1611:
  3507     0609  0831               	movf	___fladd@aexp,w
  3508     060A  00A8               	movwf	??___fladd
  3509     060B  01A9               	clrf	??___fladd+1
  3510     060C  0829               	movf	??___fladd+1,w
  3511     060D  00AB               	movwf	??___fladd+3
  3512     060E  0832               	movf	___fladd@bexp,w
  3513     060F  0228               	subwf	??___fladd,w
  3514     0610  00AA               	movwf	??___fladd+2
  3515     0611  1C03               	skipc
  3516     0612  03AB               	decf	??___fladd+3,f
  3517     0613  082B               	movf	??___fladd+3,w
  3518     0614  3A80               	xorlw	128
  3519     0615  00FF               	movwf	btemp+1
  3520     0616  3080               	movlw	128
  3521     0617  027F               	subwf	btemp+1,w
  3522     0618  1D03               	skipz
  3523     0619  2E1C               	goto	u1665
  3524     061A  301A               	movlw	26
  3525     061B  022A               	subwf	??___fladd+2,w
  3526     061C                     u1665:
  3527     061C  1C03               	skipc
  3528     061D  2E1F               	goto	u1661
  3529     061E  2E20               	goto	u1660
  3530     061F                     u1661:
  3531     061F  2E57               	goto	l1627
  3532     0620                     u1660:
  3533     0620                     l1613:
  3534     0620  1283               	bcf	3,5	;RP0=0, select bank0
  3535     0621  1303               	bcf	3,6	;RP1=0, select bank0
  3536     0622  0823               	movf	___fladd@b+3,w
  3537     0623  0422               	iorwf	___fladd@b+2,w
  3538     0624  0421               	iorwf	___fladd@b+1,w
  3539     0625  0420               	iorwf	___fladd@b,w
  3540     0626  1D03               	skipz
  3541     0627  2E29               	goto	u1671
  3542     0628  2E2B               	goto	u1670
  3543     0629                     u1671:
  3544     0629  3001               	movlw	1
  3545     062A  2E2C               	goto	u1680
  3546     062B                     u1670:
  3547     062B  3000               	movlw	0
  3548     062C                     u1680:
  3549     062C  00B3               	movwf	___fladd@grs
  3550     062D  3000               	movlw	0
  3551     062E  00A3               	movwf	___fladd@b+3
  3552     062F  3000               	movlw	0
  3553     0630  00A2               	movwf	___fladd@b+2
  3554     0631  3000               	movlw	0
  3555     0632  00A1               	movwf	___fladd@b+1
  3556     0633  3000               	movlw	0
  3557     0634  00A0               	movwf	___fladd@b
  3558     0635  0831               	movf	___fladd@aexp,w
  3559     0636  00B2               	movwf	___fladd@bexp
  3560     0637  2E5F               	goto	l506
  3561     0638                     l508:
  3562     0638  1C33               	btfss	___fladd@grs,0
  3563     0639  2E3B               	goto	u1691
  3564     063A  2E3C               	goto	u1690
  3565     063B                     u1691:
  3566     063B  2E43               	goto	l1617
  3567     063C                     u1690:
  3568     063C                     l1615:
  3569     063C  0833               	movf	___fladd@grs,w
  3570     063D  00A8               	movwf	??___fladd
  3571     063E  1003               	clrc
  3572     063F  0C28               	rrf	??___fladd,w
  3573     0640  3801               	iorlw	1
  3574     0641  00B3               	movwf	___fladd@grs
  3575     0642  2E45               	goto	l1619
  3576     0643                     l1617:
  3577     0643  1003               	clrc
  3578     0644  0CB3               	rrf	___fladd@grs,f
  3579     0645                     l1619:
  3580     0645  1C20               	btfss	___fladd@b,0
  3581     0646  2E48               	goto	u1701
  3582     0647  2E49               	goto	u1700
  3583     0648                     u1701:
  3584     0648  2E4A               	goto	l1623
  3585     0649                     u1700:
  3586     0649                     l1621:
  3587     0649  17B3               	bsf	___fladd@grs,7
  3588     064A                     l1623:
  3589     064A  3001               	movlw	1
  3590     064B  00A8               	movwf	??___fladd
  3591     064C                     u1715:
  3592     064C  0D23               	rlf	___fladd@b+3,w
  3593     064D  0CA3               	rrf	___fladd@b+3,f
  3594     064E  0CA2               	rrf	___fladd@b+2,f
  3595     064F  0CA1               	rrf	___fladd@b+1,f
  3596     0650  0CA0               	rrf	___fladd@b,f
  3597     0651  0BA8               	decfsz	??___fladd& (0+127),f
  3598     0652  2E4C               	goto	u1715
  3599     0653                     l1625:
  3600     0653  3001               	movlw	1
  3601     0654  00FF               	movwf	btemp+1
  3602     0655  087F               	movf	btemp+1,w
  3603     0656  07B2               	addwf	___fladd@bexp,f
  3604     0657                     l1627:
  3605     0657  1283               	bcf	3,5	;RP0=0, select bank0
  3606     0658  1303               	bcf	3,6	;RP1=0, select bank0
  3607     0659  0831               	movf	___fladd@aexp,w
  3608     065A  0232               	subwf	___fladd@bexp,w
  3609     065B  1C03               	skipc
  3610     065C  2E5E               	goto	u1721
  3611     065D  2E5F               	goto	u1720
  3612     065E                     u1721:
  3613     065E  2E38               	goto	l508
  3614     065F                     u1720:
  3615     065F                     l506:
  3616     065F  1B30               	btfsc	___fladd@signs,6
  3617     0660  2E62               	goto	u1731
  3618     0661  2E63               	goto	u1730
  3619     0662                     u1731:
  3620     0662  2EAC               	goto	l1653
  3621     0663                     u1730:
  3622     0663                     l1629:
  3623     0663  0832               	movf	___fladd@bexp,w
  3624     0664  1D03               	btfss	3,2
  3625     0665  2E67               	goto	u1741
  3626     0666  2E68               	goto	u1740
  3627     0667                     u1741:
  3628     0667  2E71               	goto	l1635
  3629     0668                     u1740:
  3630     0668                     l1631:
  3631     0668  3000               	movlw	0
  3632     0669  00A3               	movwf	?___fladd+3
  3633     066A  3000               	movlw	0
  3634     066B  00A2               	movwf	?___fladd+2
  3635     066C  3000               	movlw	0
  3636     066D  00A1               	movwf	?___fladd+1
  3637     066E  3000               	movlw	0
  3638     066F  00A0               	movwf	?___fladd
  3639     0670  2FD8               	goto	l515
  3640     0671                     l1635:
  3641     0671  0824               	movf	___fladd@a,w
  3642     0672  07A0               	addwf	___fladd@b,f
  3643     0673  0825               	movf	___fladd@a+1,w
  3644     0674  1103               	clrz
  3645     0675  1803               	skipnc
  3646     0676  3E01               	addlw	1
  3647     0677  1903               	skipnz
  3648     0678  2E7A               	goto	u1751
  3649     0679  07A1               	addwf	___fladd@b+1,f
  3650     067A                     u1751:
  3651     067A  0826               	movf	___fladd@a+2,w
  3652     067B  1103               	clrz
  3653     067C  1803               	skipnc
  3654     067D  3E01               	addlw	1
  3655     067E  1903               	skipnz
  3656     067F  2E81               	goto	u1752
  3657     0680  07A2               	addwf	___fladd@b+2,f
  3658     0681                     u1752:
  3659     0681  0827               	movf	___fladd@a+3,w
  3660     0682  1103               	clrz
  3661     0683  1803               	skipnc
  3662     0684  3E01               	addlw	1
  3663     0685  1903               	skipnz
  3664     0686  2E88               	goto	u1753
  3665     0687  07A3               	addwf	___fladd@b+3,f
  3666     0688                     u1753:
  3667     0688                     l1637:
  3668     0688  1C23               	btfss	___fladd@b+3,0
  3669     0689  2E8B               	goto	u1761
  3670     068A  2E8C               	goto	u1760
  3671     068B                     u1761:
  3672     068B  2F60               	goto	l1689
  3673     068C                     u1760:
  3674     068C                     l1639:
  3675     068C  1C33               	btfss	___fladd@grs,0
  3676     068D  2E8F               	goto	u1771
  3677     068E  2E90               	goto	u1770
  3678     068F                     u1771:
  3679     068F  2E97               	goto	l1643
  3680     0690                     u1770:
  3681     0690                     l1641:
  3682     0690  0833               	movf	___fladd@grs,w
  3683     0691  00A8               	movwf	??___fladd
  3684     0692  1003               	clrc
  3685     0693  0C28               	rrf	??___fladd,w
  3686     0694  3801               	iorlw	1
  3687     0695  00B3               	movwf	___fladd@grs
  3688     0696  2E99               	goto	l1645
  3689     0697                     l1643:
  3690     0697  1003               	clrc
  3691     0698  0CB3               	rrf	___fladd@grs,f
  3692     0699                     l1645:
  3693     0699  1C20               	btfss	___fladd@b,0
  3694     069A  2E9C               	goto	u1781
  3695     069B  2E9D               	goto	u1780
  3696     069C                     u1781:
  3697     069C  2E9E               	goto	l1649
  3698     069D                     u1780:
  3699     069D                     l1647:
  3700     069D  17B3               	bsf	___fladd@grs,7
  3701     069E                     l1649:
  3702     069E  3001               	movlw	1
  3703     069F  00A8               	movwf	??___fladd
  3704     06A0                     u1795:
  3705     06A0  0D23               	rlf	___fladd@b+3,w
  3706     06A1  0CA3               	rrf	___fladd@b+3,f
  3707     06A2  0CA2               	rrf	___fladd@b+2,f
  3708     06A3  0CA1               	rrf	___fladd@b+1,f
  3709     06A4  0CA0               	rrf	___fladd@b,f
  3710     06A5  0BA8               	decfsz	??___fladd& (0+127),f
  3711     06A6  2EA0               	goto	u1795
  3712     06A7                     l1651:
  3713     06A7  3001               	movlw	1
  3714     06A8  00FF               	movwf	btemp+1
  3715     06A9  087F               	movf	btemp+1,w
  3716     06AA  07B2               	addwf	___fladd@bexp,f
  3717     06AB  2F60               	goto	l1689
  3718     06AC                     l1653:
  3719     06AC  0823               	movf	___fladd@b+3,w
  3720     06AD  3A80               	xorlw	128
  3721     06AE  00FF               	movwf	btemp+1
  3722     06AF  0827               	movf	___fladd@a+3,w
  3723     06B0  3A80               	xorlw	128
  3724     06B1  027F               	subwf	btemp+1,w
  3725     06B2  1D03               	skipz
  3726     06B3  2EBE               	goto	u1803
  3727     06B4  0826               	movf	___fladd@a+2,w
  3728     06B5  0222               	subwf	___fladd@b+2,w
  3729     06B6  1D03               	skipz
  3730     06B7  2EBE               	goto	u1803
  3731     06B8  0825               	movf	___fladd@a+1,w
  3732     06B9  0221               	subwf	___fladd@b+1,w
  3733     06BA  1D03               	skipz
  3734     06BB  2EBE               	goto	u1803
  3735     06BC  0824               	movf	___fladd@a,w
  3736     06BD  0220               	subwf	___fladd@b,w
  3737     06BE                     u1803:
  3738     06BE  1803               	skipnc
  3739     06BF  2EC1               	goto	u1801
  3740     06C0  2EC2               	goto	u1800
  3741     06C1                     u1801:
  3742     06C1  2F1A               	goto	l1665
  3743     06C2                     u1800:
  3744     06C2                     l1655:
  3745     06C2  30FF               	movlw	255
  3746     06C3  00A8               	movwf	??___fladd
  3747     06C4  30FF               	movlw	255
  3748     06C5  00A9               	movwf	??___fladd+1
  3749     06C6  30FF               	movlw	255
  3750     06C7  00AA               	movwf	??___fladd+2
  3751     06C8  30FF               	movlw	255
  3752     06C9  00AB               	movwf	??___fladd+3
  3753     06CA  0824               	movf	___fladd@a,w
  3754     06CB  00AC               	movwf	??___fladd+4
  3755     06CC  0825               	movf	___fladd@a+1,w
  3756     06CD  00AD               	movwf	??___fladd+5
  3757     06CE  0826               	movf	___fladd@a+2,w
  3758     06CF  00AE               	movwf	??___fladd+6
  3759     06D0  0827               	movf	___fladd@a+3,w
  3760     06D1  00AF               	movwf	??___fladd+7
  3761     06D2  0820               	movf	___fladd@b,w
  3762     06D3  02AC               	subwf	??___fladd+4,f
  3763     06D4  0821               	movf	___fladd@b+1,w
  3764     06D5  1C03               	skipc
  3765     06D6  0F21               	incfsz	___fladd@b+1,w
  3766     06D7  2ED9               	goto	u1811
  3767     06D8  2EDA               	goto	u1812
  3768     06D9                     u1811:
  3769     06D9  02AD               	subwf	??___fladd+5,f
  3770     06DA                     u1812:
  3771     06DA  0822               	movf	___fladd@b+2,w
  3772     06DB  1C03               	skipc
  3773     06DC  0F22               	incfsz	___fladd@b+2,w
  3774     06DD  2EDF               	goto	u1813
  3775     06DE  2EE0               	goto	u1814
  3776     06DF                     u1813:
  3777     06DF  02AE               	subwf	??___fladd+6,f
  3778     06E0                     u1814:
  3779     06E0  0823               	movf	___fladd@b+3,w
  3780     06E1  1C03               	skipc
  3781     06E2  0F23               	incfsz	___fladd@b+3,w
  3782     06E3  2EE5               	goto	u1815
  3783     06E4  2EE6               	goto	u1816
  3784     06E5                     u1815:
  3785     06E5  02AF               	subwf	??___fladd+7,f
  3786     06E6                     u1816:
  3787     06E6  082C               	movf	??___fladd+4,w
  3788     06E7  07A8               	addwf	??___fladd,f
  3789     06E8  082D               	movf	??___fladd+5,w
  3790     06E9  1803               	skipnc
  3791     06EA  0F2D               	incfsz	??___fladd+5,w
  3792     06EB  2EED               	goto	u1820
  3793     06EC  2EEE               	goto	u1821
  3794     06ED                     u1820:
  3795     06ED  07A9               	addwf	??___fladd+1,f
  3796     06EE                     u1821:
  3797     06EE  082E               	movf	??___fladd+6,w
  3798     06EF  1803               	skipnc
  3799     06F0  0F2E               	incfsz	??___fladd+6,w
  3800     06F1  2EF3               	goto	u1822
  3801     06F2  2EF4               	goto	u1823
  3802     06F3                     u1822:
  3803     06F3  07AA               	addwf	??___fladd+2,f
  3804     06F4                     u1823:
  3805     06F4  082F               	movf	??___fladd+7,w
  3806     06F5  1803               	skipnc
  3807     06F6  0A2F               	incf	??___fladd+7,w
  3808     06F7  07AB               	addwf	??___fladd+3,f
  3809     06F8  082B               	movf	??___fladd+3,w
  3810     06F9  00A3               	movwf	___fladd@b+3
  3811     06FA  082A               	movf	??___fladd+2,w
  3812     06FB  00A2               	movwf	___fladd@b+2
  3813     06FC  0829               	movf	??___fladd+1,w
  3814     06FD  00A1               	movwf	___fladd@b+1
  3815     06FE  0828               	movf	??___fladd,w
  3816     06FF  00A0               	movwf	___fladd@b
  3817     0700                     l1657:
  3818     0700  3080               	movlw	128
  3819     0701  00FF               	movwf	btemp+1
  3820     0702  087F               	movf	btemp+1,w
  3821     0703  06B0               	xorwf	___fladd@signs,f
  3822     0704                     l1659:
  3823     0704  09B3               	comf	___fladd@grs,f
  3824     0705  0AB3               	incf	___fladd@grs,f
  3825     0706                     l1661:
  3826     0706  0833               	movf	___fladd@grs,w
  3827     0707  1D03               	btfss	3,2
  3828     0708  2F0A               	goto	u1831
  3829     0709  2F0B               	goto	u1830
  3830     070A                     u1831:
  3831     070A  2F28               	goto	l523
  3832     070B                     u1830:
  3833     070B                     l1663:
  3834     070B  3001               	movlw	1
  3835     070C  07A0               	addwf	___fladd@b,f
  3836     070D  3000               	movlw	0
  3837     070E  1803               	skipnc
  3838     070F  3001               	movlw	1
  3839     0710  07A1               	addwf	___fladd@b+1,f
  3840     0711  3000               	movlw	0
  3841     0712  1803               	skipnc
  3842     0713  3001               	movlw	1
  3843     0714  07A2               	addwf	___fladd@b+2,f
  3844     0715  3000               	movlw	0
  3845     0716  1803               	skipnc
  3846     0717  3001               	movlw	1
  3847     0718  07A3               	addwf	___fladd@b+3,f
  3848     0719  2F28               	goto	l523
  3849     071A                     l1665:
  3850     071A  0824               	movf	___fladd@a,w
  3851     071B  02A0               	subwf	___fladd@b,f
  3852     071C  0825               	movf	___fladd@a+1,w
  3853     071D  1C03               	skipc
  3854     071E  0F25               	incfsz	___fladd@a+1,w
  3855     071F  02A1               	subwf	___fladd@b+1,f
  3856     0720  0826               	movf	___fladd@a+2,w
  3857     0721  1C03               	skipc
  3858     0722  0F26               	incfsz	___fladd@a+2,w
  3859     0723  02A2               	subwf	___fladd@b+2,f
  3860     0724  0827               	movf	___fladd@a+3,w
  3861     0725  1C03               	skipc
  3862     0726  0F27               	incfsz	___fladd@a+3,w
  3863     0727  02A3               	subwf	___fladd@b+3,f
  3864     0728                     l523:
  3865     0728  0823               	movf	___fladd@b+3,w
  3866     0729  0422               	iorwf	___fladd@b+2,w
  3867     072A  0421               	iorwf	___fladd@b+1,w
  3868     072B  0420               	iorwf	___fladd@b,w
  3869     072C  1D03               	skipz
  3870     072D  2F2F               	goto	u1841
  3871     072E  2F30               	goto	u1840
  3872     072F                     u1841:
  3873     072F  2F5C               	goto	l1687
  3874     0730                     u1840:
  3875     0730                     l1667:
  3876     0730  0833               	movf	___fladd@grs,w
  3877     0731  1D03               	btfss	3,2
  3878     0732  2F34               	goto	u1851
  3879     0733  2F35               	goto	u1850
  3880     0734                     u1851:
  3881     0734  2F5C               	goto	l1687
  3882     0735                     u1850:
  3883     0735                     l1669:
  3884     0735  3000               	movlw	0
  3885     0736  00A3               	movwf	?___fladd+3
  3886     0737  3000               	movlw	0
  3887     0738  00A2               	movwf	?___fladd+2
  3888     0739  3000               	movlw	0
  3889     073A  00A1               	movwf	?___fladd+1
  3890     073B  3000               	movlw	0
  3891     073C  00A0               	movwf	?___fladd
  3892     073D  2FD8               	goto	l515
  3893     073E                     l1673:
  3894     073E  3001               	movlw	1
  3895     073F  00A8               	movwf	??___fladd
  3896     0740                     u1865:
  3897     0740  1003               	clrc
  3898     0741  0DA0               	rlf	___fladd@b,f
  3899     0742  0DA1               	rlf	___fladd@b+1,f
  3900     0743  0DA2               	rlf	___fladd@b+2,f
  3901     0744  0DA3               	rlf	___fladd@b+3,f
  3902     0745  0BA8               	decfsz	??___fladd,f
  3903     0746  2F40               	goto	u1865
  3904     0747                     l1675:
  3905     0747  1FB3               	btfss	___fladd@grs,7
  3906     0748  2F4A               	goto	u1871
  3907     0749  2F4B               	goto	u1870
  3908     074A                     u1871:
  3909     074A  2F4C               	goto	l527
  3910     074B                     u1870:
  3911     074B                     l1677:
  3912     074B  1420               	bsf	___fladd@b,0
  3913     074C                     l527:
  3914     074C  1C33               	btfss	___fladd@grs,0
  3915     074D  2F4F               	goto	u1881
  3916     074E  2F50               	goto	u1880
  3917     074F                     u1881:
  3918     074F  2F53               	goto	l1681
  3919     0750                     u1880:
  3920     0750                     l1679:
  3921     0750  1403               	setc
  3922     0751  0DB3               	rlf	___fladd@grs,f
  3923     0752  2F55               	goto	l1683
  3924     0753                     l1681:
  3925     0753  1003               	clrc
  3926     0754  0DB3               	rlf	___fladd@grs,f
  3927     0755                     l1683:
  3928     0755  0832               	movf	___fladd@bexp,w
  3929     0756  1903               	btfsc	3,2
  3930     0757  2F59               	goto	u1891
  3931     0758  2F5A               	goto	u1890
  3932     0759                     u1891:
  3933     0759  2F5C               	goto	l1687
  3934     075A                     u1890:
  3935     075A                     l1685:
  3936     075A  3001               	movlw	1
  3937     075B  02B2               	subwf	___fladd@bexp,f
  3938     075C                     l1687:
  3939     075C  1FA2               	btfss	___fladd@b+2,7
  3940     075D  2F5F               	goto	u1901
  3941     075E  2F60               	goto	u1900
  3942     075F                     u1901:
  3943     075F  2F3E               	goto	l1673
  3944     0760                     u1900:
  3945     0760                     l1689:
  3946     0760  01B1               	clrf	___fladd@aexp
  3947     0761                     l1691:
  3948     0761  1FB3               	btfss	___fladd@grs,7
  3949     0762  2F64               	goto	u1911
  3950     0763  2F65               	goto	u1910
  3951     0764                     u1911:
  3952     0764  2F73               	goto	l1699
  3953     0765                     u1910:
  3954     0765                     l1693:
  3955     0765  0833               	movf	___fladd@grs,w
  3956     0766  397F               	andlw	127
  3957     0767  1903               	btfsc	3,2
  3958     0768  2F6A               	goto	u1921
  3959     0769  2F6B               	goto	u1920
  3960     076A                     u1921:
  3961     076A  2F6E               	goto	l533
  3962     076B                     u1920:
  3963     076B                     l1695:
  3964     076B  01B1               	clrf	___fladd@aexp
  3965     076C  0AB1               	incf	___fladd@aexp,f
  3966     076D  2F73               	goto	l1699
  3967     076E                     l533:
  3968     076E  1C20               	btfss	___fladd@b,0
  3969     076F  2F71               	goto	u1931
  3970     0770  2F72               	goto	u1930
  3971     0771                     u1931:
  3972     0771  2F73               	goto	l1699
  3973     0772                     u1930:
  3974     0772  2F6B               	goto	l1695
  3975     0773                     l1699:
  3976     0773  0831               	movf	___fladd@aexp,w
  3977     0774  1903               	btfsc	3,2
  3978     0775  2F77               	goto	u1941
  3979     0776  2F78               	goto	u1940
  3980     0777                     u1941:
  3981     0777  2FAC               	goto	l1709
  3982     0778                     u1940:
  3983     0778                     l1701:
  3984     0778  3001               	movlw	1
  3985     0779  07A0               	addwf	___fladd@b,f
  3986     077A  3000               	movlw	0
  3987     077B  1803               	skipnc
  3988     077C  3001               	movlw	1
  3989     077D  07A1               	addwf	___fladd@b+1,f
  3990     077E  3000               	movlw	0
  3991     077F  1803               	skipnc
  3992     0780  3001               	movlw	1
  3993     0781  07A2               	addwf	___fladd@b+2,f
  3994     0782  3000               	movlw	0
  3995     0783  1803               	skipnc
  3996     0784  3001               	movlw	1
  3997     0785  07A3               	addwf	___fladd@b+3,f
  3998     0786                     l1703:
  3999     0786  1C23               	btfss	___fladd@b+3,0
  4000     0787  2F89               	goto	u1951
  4001     0788  2F8A               	goto	u1950
  4002     0789                     u1951:
  4003     0789  2FAC               	goto	l1709
  4004     078A                     u1950:
  4005     078A                     l1705:
  4006     078A  0820               	movf	___fladd@b,w
  4007     078B  00A8               	movwf	??___fladd
  4008     078C  0821               	movf	___fladd@b+1,w
  4009     078D  00A9               	movwf	??___fladd+1
  4010     078E  0822               	movf	___fladd@b+2,w
  4011     078F  00AA               	movwf	??___fladd+2
  4012     0790  0823               	movf	___fladd@b+3,w
  4013     0791  00AB               	movwf	??___fladd+3
  4014     0792  3001               	movlw	1
  4015     0793  00AC               	movwf	??___fladd+4
  4016     0794                     u1965:
  4017     0794  0D2B               	rlf	??___fladd+3,w
  4018     0795  0CAB               	rrf	??___fladd+3,f
  4019     0796  0CAA               	rrf	??___fladd+2,f
  4020     0797  0CA9               	rrf	??___fladd+1,f
  4021     0798  0CA8               	rrf	??___fladd,f
  4022     0799                     u1960:
  4023     0799  0BAC               	decfsz	??___fladd+4,f
  4024     079A  2F94               	goto	u1965
  4025     079B  082B               	movf	??___fladd+3,w
  4026     079C  00A3               	movwf	___fladd@b+3
  4027     079D  082A               	movf	??___fladd+2,w
  4028     079E  00A2               	movwf	___fladd@b+2
  4029     079F  0829               	movf	??___fladd+1,w
  4030     07A0  00A1               	movwf	___fladd@b+1
  4031     07A1  0828               	movf	??___fladd,w
  4032     07A2  00A0               	movwf	___fladd@b
  4033     07A3  0A32               	incf	___fladd@bexp,w
  4034     07A4  1903               	btfsc	3,2
  4035     07A5  2FA7               	goto	u1971
  4036     07A6  2FA8               	goto	u1970
  4037     07A7                     u1971:
  4038     07A7  2FAC               	goto	l1709
  4039     07A8                     u1970:
  4040     07A8                     l1707:
  4041     07A8  3001               	movlw	1
  4042     07A9  00FF               	movwf	btemp+1
  4043     07AA  087F               	movf	btemp+1,w
  4044     07AB  07B2               	addwf	___fladd@bexp,f
  4045     07AC                     l1709:
  4046     07AC  0A32               	incf	___fladd@bexp,w
  4047     07AD  1903               	btfsc	3,2
  4048     07AE  2FB0               	goto	u1981
  4049     07AF  2FB1               	goto	u1980
  4050     07B0                     u1981:
  4051     07B0  2FB6               	goto	l1713
  4052     07B1                     u1980:
  4053     07B1                     l1711:
  4054     07B1  0832               	movf	___fladd@bexp,w
  4055     07B2  1D03               	btfss	3,2
  4056     07B3  2FB5               	goto	u1991
  4057     07B4  2FB6               	goto	u1990
  4058     07B5                     u1991:
  4059     07B5  2FC4               	goto	l1719
  4060     07B6                     u1990:
  4061     07B6                     l1713:
  4062     07B6  3000               	movlw	0
  4063     07B7  00A3               	movwf	___fladd@b+3
  4064     07B8  3000               	movlw	0
  4065     07B9  00A2               	movwf	___fladd@b+2
  4066     07BA  3000               	movlw	0
  4067     07BB  00A1               	movwf	___fladd@b+1
  4068     07BC  3000               	movlw	0
  4069     07BD  00A0               	movwf	___fladd@b
  4070     07BE                     l1715:
  4071     07BE  0832               	movf	___fladd@bexp,w
  4072     07BF  1D03               	btfss	3,2
  4073     07C0  2FC2               	goto	u2001
  4074     07C1  2FC3               	goto	u2000
  4075     07C2                     u2001:
  4076     07C2  2FC4               	goto	l1719
  4077     07C3                     u2000:
  4078     07C3                     l1717:
  4079     07C3  01B0               	clrf	___fladd@signs
  4080     07C4                     l1719:
  4081     07C4  1C32               	btfss	___fladd@bexp,0
  4082     07C5  2FC7               	goto	u2011
  4083     07C6  2FC8               	goto	u2010
  4084     07C7                     u2011:
  4085     07C7  2FCA               	goto	l1723
  4086     07C8                     u2010:
  4087     07C8                     l1721:
  4088     07C8  17A2               	bsf	___fladd@b+2,7
  4089     07C9  2FCE               	goto	l1725
  4090     07CA                     l1723:
  4091     07CA  307F               	movlw	127
  4092     07CB  00FF               	movwf	btemp+1
  4093     07CC  087F               	movf	btemp+1,w
  4094     07CD  05A2               	andwf	___fladd@b+2,f
  4095     07CE                     l1725:
  4096     07CE  0832               	movf	___fladd@bexp,w
  4097     07CF  00A8               	movwf	??___fladd
  4098     07D0  1003               	clrc
  4099     07D1  0C28               	rrf	??___fladd,w
  4100     07D2  00A3               	movwf	___fladd@b+3
  4101     07D3                     l1727:
  4102     07D3  1FB0               	btfss	___fladd@signs,7
  4103     07D4  2FD6               	goto	u2021
  4104     07D5  2FD7               	goto	u2020
  4105     07D6                     u2021:
  4106     07D6  2FD8               	goto	l545
  4107     07D7                     u2020:
  4108     07D7                     l1729:
  4109     07D7  17A3               	bsf	___fladd@b+3,7
  4110     07D8                     l545:
  4111     07D8                     l515:
  4112     07D8  0008               	return
  4113     07D9                     __end_of___fladd:
  4114                           
  4115                           	psect	text12
  4116     0014                     __ptext12:	
  4117 ;; *************** function _init *****************
  4118 ;; Defined at:
  4119 ;;		line 45 in file "task2.c"
  4120 ;; Parameters:    Size  Location     Type
  4121 ;;		None
  4122 ;; Auto vars:     Size  Location     Type
  4123 ;;		None
  4124 ;; Return value:  Size  Location     Type
  4125 ;;                  1    wreg      void 
  4126 ;; Registers used:
  4127 ;;		wreg, status,2, status,0, btemp+1, pclath, cstack
  4128 ;; Tracked objects:
  4129 ;;		On entry : 0/0
  4130 ;;		On exit  : 0/0
  4131 ;;		Unchanged: 0/0
  4132 ;; Data sizes:     COMMON   BANK0   BANK1   BANK3   BANK2
  4133 ;;      Params:         0       0       0       0       0
  4134 ;;      Locals:         0       0       0       0       0
  4135 ;;      Temps:          2       0       0       0       0
  4136 ;;      Totals:         2       0       0       0       0
  4137 ;;Total ram usage:        2 bytes
  4138 ;; Hardware stack levels used: 1
  4139 ;; Hardware stack levels required when called: 1
  4140 ;; This function calls:
  4141 ;;		_lcdcmd
  4142 ;; This function is called by:
  4143 ;;		_main
  4144 ;; This function uses a non-reentrant model
  4145 ;;
  4146                           
  4147     0014                     _init:	
  4148                           ;psect for function _init
  4149                           
  4150     0014                     l1981:	
  4151                           ;incstack = 0
  4152                           ; Regs used in _init: [wreg+status,2+status,0+btemp+1+pclath+cstack]
  4153                           
  4154                           
  4155                           ;task2.c: 47: TRISC=0x00;
  4156     0014  1683               	bsf	3,5	;RP0=1, select bank1
  4157     0015  1303               	bcf	3,6	;RP1=0, select bank1
  4158     0016  0187               	clrf	7	;volatile
  4159                           
  4160                           ;task2.c: 48: TRISD=0x00;
  4161     0017  0188               	clrf	8	;volatile
  4162     0018                     l1983:
  4163                           
  4164                           ;task2.c: 49: TRISB=0xF0;
  4165     0018  30F0               	movlw	240
  4166     0019  0086               	movwf	6	;volatile
  4167     001A                     l1985:
  4168                           
  4169                           ;task2.c: 50: OPTION_REG&=0x7F;
  4170     001A  307F               	movlw	127
  4171     001B  00FF               	movwf	btemp+1
  4172     001C  087F               	movf	btemp+1,w
  4173     001D  0581               	andwf	1,f	;volatile
  4174     001E                     l1987:
  4175                           
  4176                           ;task2.c: 51: lcdcmd(0x30);
  4177     001E  3030               	movlw	48
  4178     001F  120A  158A  2606  120A  118A  	fcall	_lcdcmd
  4179     0024                     l1989:
  4180                           
  4181                           ;task2.c: 52: _delay((unsigned long)((5)*(6000000/4000.0)));
  4182     0024  300A               	movlw	10
  4183     0025  00F4               	movwf	??_init+1
  4184     0026  30BC               	movlw	188
  4185     0027  00F3               	movwf	??_init
  4186     0028                     u2637:
  4187     0028  0BF3               	decfsz	??_init,f
  4188     0029  2828               	goto	u2637
  4189     002A  0BF4               	decfsz	??_init+1,f
  4190     002B  2828               	goto	u2637
  4191     002C  0000               	nop
  4192     002D                     l1991:
  4193                           
  4194                           ;task2.c: 53: lcdcmd(0x30);
  4195     002D  3030               	movlw	48
  4196     002E  120A  158A  2606  120A  118A  	fcall	_lcdcmd
  4197     0033                     l1993:
  4198                           
  4199                           ;task2.c: 54: _delay((unsigned long)((10)*(6000000/4000.0)));
  4200     0033  3014               	movlw	20
  4201     0034  00F4               	movwf	??_init+1
  4202     0035  3079               	movlw	121
  4203     0036  00F3               	movwf	??_init
  4204     0037                     u2647:
  4205     0037  0BF3               	decfsz	??_init,f
  4206     0038  2837               	goto	u2647
  4207     0039  0BF4               	decfsz	??_init+1,f
  4208     003A  2837               	goto	u2647
  4209     003B  283C               	nop2
  4210     003C                     l1995:
  4211                           
  4212                           ;task2.c: 55: lcdcmd(0x30);
  4213     003C  3030               	movlw	48
  4214     003D  120A  158A  2606  120A  118A  	fcall	_lcdcmd
  4215     0042                     l1997:
  4216                           
  4217                           ;task2.c: 56: lcdcmd(0x38);
  4218     0042  3038               	movlw	56
  4219     0043  120A  158A  2606  120A  118A  	fcall	_lcdcmd
  4220     0048                     l1999:
  4221                           
  4222                           ;task2.c: 57: lcdcmd(0x0C);
  4223     0048  300C               	movlw	12
  4224     0049  120A  158A  2606  120A  118A  	fcall	_lcdcmd
  4225     004E                     l69:
  4226     004E  0008               	return
  4227     004F                     __end_of_init:
  4228                           
  4229                           	psect	text13
  4230     0E06                     __ptext13:	
  4231 ;; *************** function _lcdcmd *****************
  4232 ;; Defined at:
  4233 ;;		line 157 in file "task2.c"
  4234 ;; Parameters:    Size  Location     Type
  4235 ;;  i               1    wreg     unsigned char 
  4236 ;; Auto vars:     Size  Location     Type
  4237 ;;  i               1    2[COMMON] unsigned char 
  4238 ;; Return value:  Size  Location     Type
  4239 ;;                  1    wreg      void 
  4240 ;; Registers used:
  4241 ;;		wreg, status,2, status,0, btemp+1
  4242 ;; Tracked objects:
  4243 ;;		On entry : 0/0
  4244 ;;		On exit  : 0/0
  4245 ;;		Unchanged: 0/0
  4246 ;; Data sizes:     COMMON   BANK0   BANK1   BANK3   BANK2
  4247 ;;      Params:         0       0       0       0       0
  4248 ;;      Locals:         1       0       0       0       0
  4249 ;;      Temps:          2       0       0       0       0
  4250 ;;      Totals:         3       0       0       0       0
  4251 ;;Total ram usage:        3 bytes
  4252 ;; Hardware stack levels used: 1
  4253 ;; This function calls:
  4254 ;;		Nothing
  4255 ;; This function is called by:
  4256 ;;		_init
  4257 ;;		_keyscan
  4258 ;;		_lcdoutput
  4259 ;;		_lcddec
  4260 ;;		_indicator
  4261 ;; This function uses a non-reentrant model
  4262 ;;
  4263                           
  4264     0E06                     _lcdcmd:	
  4265                           ;psect for function _lcdcmd
  4266                           
  4267                           
  4268                           ;incstack = 0
  4269                           ; Regs used in _lcdcmd: [wreg+status,2+status,0+btemp+1]
  4270                           ;lcdcmd@i stored from wreg
  4271     0E06  00F2               	movwf	lcdcmd@i
  4272     0E07                     l1413:
  4273                           
  4274                           ;task2.c: 157: void lcdcmd(unsigned char i);task2.c: 158: {;task2.c: 159:     PORTC&=~(0
      +                          x08);
  4275     0E07  30F7               	movlw	247
  4276     0E08  00FF               	movwf	btemp+1
  4277     0E09  087F               	movf	btemp+1,w
  4278     0E0A  1283               	bcf	3,5	;RP0=0, select bank0
  4279     0E0B  1303               	bcf	3,6	;RP1=0, select bank0
  4280     0E0C  0587               	andwf	7,f	;volatile
  4281     0E0D                     l1415:
  4282                           
  4283                           ;task2.c: 160:     PORTD=i;
  4284     0E0D  0872               	movf	lcdcmd@i,w
  4285     0E0E  0088               	movwf	8	;volatile
  4286     0E0F                     l1417:
  4287                           
  4288                           ;task2.c: 161:     PORTC|=(0x01);
  4289     0E0F  1407               	bsf	7,0	;volatile
  4290     0E10                     l1419:
  4291                           
  4292                           ;task2.c: 162:     _delay((unsigned long)((25)*(6000000/4000.0)));
  4293     0E10  3031               	movlw	49
  4294     0E11  00F1               	movwf	??_lcdcmd+1
  4295     0E12  30B2               	movlw	178
  4296     0E13  00F0               	movwf	??_lcdcmd
  4297     0E14                     u2657:
  4298     0E14  0BF0               	decfsz	??_lcdcmd,f
  4299     0E15  2E14               	goto	u2657
  4300     0E16  0BF1               	decfsz	??_lcdcmd+1,f
  4301     0E17  2E14               	goto	u2657
  4302     0E18  0000               	nop
  4303                           
  4304                           ;task2.c: 163:     PORTC&=~(0x01);
  4305     0E19  30FE               	movlw	254
  4306     0E1A  00FF               	movwf	btemp+1
  4307     0E1B  087F               	movf	btemp+1,w
  4308     0E1C  1283               	bcf	3,5	;RP0=0, select bank0
  4309     0E1D  1303               	bcf	3,6	;RP1=0, select bank0
  4310     0E1E  0587               	andwf	7,f	;volatile
  4311     0E1F                     l93:
  4312     0E1F  0008               	return
  4313     0E20                     __end_of_lcdcmd:
  4314     007E                     btemp	set	126	;btemp
  4315     007E                     wtemp0	set	126
  4316                           
  4317                           	psect	config
  4318                           
  4319                           ;Config register CONFIG @ 0x2007
  4320                           ;	Oscillator Selection bits
  4321                           ;	FOSC = EXTRC, RC oscillator
  4322                           ;	Watchdog Timer Enable bit
  4323                           ;	WDTE = OFF, WDT disabled
  4324                           ;	Power-up Timer Enable bit
  4325                           ;	PWRTE = OFF, PWRT disabled
  4326                           ;	Brown-out Reset Enable bit
  4327                           ;	BOREN = OFF, BOR disabled
  4328                           ;	Low-Voltage (Single-Supply) In-Circuit Serial Programming Enable bit
  4329                           ;	LVP = OFF, RB3 is digital I/O, HV on MCLR must be used for programming
  4330                           ;	Data EEPROM Memory Code Protection bit
  4331                           ;	CPD = OFF, Data EEPROM code protection off
  4332                           ;	Flash Program Memory Write Enable bits
  4333                           ;	WRT = OFF, Write protection off; all program memory may be written to by EECON control
  4334                           ;	In-Circuit Debugger Mode bit
  4335                           ;	DEBUG = 0x1, unprogrammed default
  4336                           ;	Flash Program Memory Code Protection bit
  4337                           ;	CP = OFF, Code protection off
  4338     2007                     	org	8199
  4339     2007  3F3B               	dw	16187

Data Sizes:
    Strings     0
    Constant    0
    Data        67
    BSS         19
    Persistent  0
    Stack       0

Auto Spaces:
    Space          Size  Autos    Used
    COMMON           14     14      14
    BANK0            80     28      72
    BANK1            80      0      42
    BANK3            96      0       0
    BANK2            96      0       0

Pointer List with Targets:

    None.

Critical Paths under _main in COMMON

    _lcdoutput->___awdiv
    ___awdiv->___awmod
    _lcddec->_lcdcmd
    _lcddec->_lcddata
    _indicator->___xxtofl
    ___fldiv->___xxtofl
    ___fladd->___xxtofl
    _init->_lcdcmd

Critical Paths under _main in BANK0

    _main->_keyscan
    _indicator->___fldiv

Critical Paths under _main in BANK1

    None.

Critical Paths under _main in BANK3

    None.

Critical Paths under _main in BANK2

    None.

Call Graph Tables:

 ---------------------------------------------------------------------------------
 (Depth) Function   	        Calls       Base Space   Used Autos Params    Refs
 ---------------------------------------------------------------------------------
 (0) _main                                                 0     0      0    7331
                               _init
                            _keyscan
 ---------------------------------------------------------------------------------
 (1) _keyscan                                              2     2      0    7309
                                             26 BANK0      2     2      0
                          _indicator
                             _lcdcmd
                            _lcddata
                             _lcddec
                          _lcdoutput
 ---------------------------------------------------------------------------------
 (2) _lcdoutput                                            4     2      2    1748
                                              0 BANK0      4     2      2
                            ___awdiv
                            ___awmod
                             _lcdcmd
                            _lcddata
 ---------------------------------------------------------------------------------
 (3) ___awmod                                              6     2      4     600
                                              0 COMMON     6     2      4
 ---------------------------------------------------------------------------------
 (3) ___awdiv                                              8     4      4     452
                                              6 COMMON     8     4      4
                            ___awmod (ARG)
 ---------------------------------------------------------------------------------
 (2) _lcddec                                               2     0      2     674
                                              3 COMMON     2     0      2
                             _lcdcmd
                            _lcddata
 ---------------------------------------------------------------------------------
 (2) _indicator                                            0     0      0    4843
                            ___fladd
                            ___fldiv
                             ___flge
                           ___xxtofl
                             _lcdcmd
                            _lcddata
 ---------------------------------------------------------------------------------
 (3) _lcddata                                              3     3      0      22
                                              0 COMMON     3     3      0
 ---------------------------------------------------------------------------------
 (3) ___xxtofl                                            14    10      4     474
                                              0 COMMON    14    10      4
 ---------------------------------------------------------------------------------
 (3) ___flge                                              12     4      8     790
                                              0 COMMON    12     4      8
 ---------------------------------------------------------------------------------
 (3) ___fldiv                                             26    18      8    1273
                                              0 BANK0     26    18      8
                           ___xxtofl (ARG)
 ---------------------------------------------------------------------------------
 (3) ___fladd                                             20    12      8    2262
                                              0 BANK0     20    12      8
                           ___xxtofl (ARG)
 ---------------------------------------------------------------------------------
 (1) _init                                                 2     2      0      22
                                              3 COMMON     2     2      0
                             _lcdcmd
 ---------------------------------------------------------------------------------
 (3) _lcdcmd                                               3     3      0      22
                                              0 COMMON     3     3      0
 ---------------------------------------------------------------------------------
 Estimated maximum stack depth 3
 ---------------------------------------------------------------------------------

 Call Graph Graphs:

 _main (ROOT)
   _init
     _lcdcmd
   _keyscan
     _indicator
       ___fladd
         ___xxtofl (ARG)
       ___fldiv
         ___xxtofl (ARG)
       ___flge
       ___xxtofl
       _lcdcmd
       _lcddata
     _lcdcmd
     _lcddata
     _lcddec
       _lcdcmd
       _lcddata
     _lcdoutput
       ___awdiv
         ___awmod (ARG)
       ___awmod
       _lcdcmd
       _lcddata

 Address spaces:
Name               Size   Autos  Total    Cost      Usage
BANK3               60      0       0       9        0.0%
BITBANK3            60      0       0       8        0.0%
SFR3                 0      0       0       4        0.0%
BITSFR3              0      0       0       4        0.0%
BANK2               60      0       0      11        0.0%
BITBANK2            60      0       0      10        0.0%
SFR2                 0      0       0       5        0.0%
BITSFR2              0      0       0       5        0.0%
BANK1               50      0      2A       7       52.5%
BITBANK1            50      0       0       6        0.0%
SFR1                 0      0       0       2        0.0%
BITSFR1              0      0       0       2        0.0%
BANK0               50     1C      48       5       90.0%
BITBANK0            50      0       0       4        0.0%
SFR0                 0      0       0       1        0.0%
BITSFR0              0      0       0       1        0.0%
COMMON               E      E       E       1      100.0%
BITCOMMON            E      0       0       0        0.0%
CODE                 0      0       0       0        0.0%
DATA                 0      0      80      12        0.0%
ABS                  0      0      80       3        0.0%
NULL                 0      0       0       0        0.0%
STACK                0      0       0       2        0.0%
EEDATA             100      0       0       0        0.0%


Microchip Technology PIC Macro Assembler V2.45 build 20230818022343 
Symbol Table                                                                                   Sun Dec 31 13:00:52 2023

           ___fldiv@aexp 0039             ___fldiv@bexp 0038                        _a 0067  
                      _j 005F                        _v 0059                        _w 0055  
                      _x 0066                        pc 0002             ___fldiv@sign 0031  
                     l90 03B1                       l93 0E1F                       l69 004E  
                     l96 0DEC                       l99 0E9D                       _d1 0061  
                     _d2 0063             ___awdiv@sign 007B                       _de 005D  
                     fsr 0004                      l102 0DC2                      l115 022F  
                    l502 05DC                      l506 065F                      l354 0F5D  
                    l523 0728                      l515 07D8                      l508 0638  
                    l533 076E                      l382 0FE6                      l527 074C  
                    l367 0EF6                      l560 0580                      l545 07D8  
                    l642 0071                      l387 0FFF                      l379 0F7A  
                    l580 056C                      l644 0106                      l574 04FA  
                    l558 0408                      l655 00D0                      l656 00DC  
                    _bat 0048                      _dot 0054                      fsr0 0004  
                    indf 0000             ___awmod@sign 0075                     l2001 0230  
                   l2003 0239                     l2101 0367                     l2021 0262  
                   l2005 023D                     l2031 0276                     l2023 0268  
                   l2015 024C                     l2007 0243                     l2113 0389  
                   l2041 02AC                     l2033 027C                     l2017 0256  
                   l2009 0249                     l2115 0391                     l2107 036E  
                   l2051 02D1                     l2043 02B3                     l2035 0282  
                   l2019 025C                     l2131 0006                     l1413 0E07  
                   l1421 0DD7                     l1501 0EE2                     l2061 02F8  
                   l2045 02BA                     l2037 029C                     l2029 026C  
                   l2125 039B                     l2133 000B                     l1415 0E0D  
                   l1511 0F5E                     l1423 0DDA                     l1431 0EF8  
                   l1503 0EE8                     l2063 02FA                     l2071 030A  
                   l2047 02C2                     l2055 02DD                     l2039 02A1  
                   l1417 0E0F                     l1601 0600                     l1521 0FBE  
                   l1513 0F72                     l1425 0DDC                     l1441 0F0C  
                   l1433 0EFC                     l1505 0EED                     l2081 0334  
                   l2065 0303                     l2057 02E3                     l2049 02CB  
                   l1419 0E10                     l1611 0609                     l1603 0602  
                   l1531 0581                     l1523 0FC2                     l1515 0F8E  
                   l1427 0DE6                     l1451 0F22                     l1443 0F10  
                   l1435 0F01                     l1507 0EF2                     l2155 03A3  
                   l2083 0338                     l2059 02F0                     l1701 0778  
                   l1621 0649                     l1613 0620                     l1605 0604  
                   l1541 0594                     l1533 0586                     l1525 0FFC  
                   l1517 0F96                     l1461 0F42                     l1453 0F26  
                   l1445 0F12                     l1437 0F03                     l1429 0EF7  
                   l2085 033A                     l2093 034A                     l2077 0327  
                   l1711 07B1                     l1703 0786                     l1631 0668  
                   l1623 064A                     l1615 063C                     l1607 0606  
                   l1551 05AC                     l1543 0599                     l1535 058A  
                   l1527 0FFE                     l1519 0F9A                     l1463 0F49  
                   l1455 0F2A                     l1447 0F18                     l1439 0F07  
                   l2095 0350                     l2087 0343                     l2079 032E  
                   l1721 07C8                     l1713 07B6                     l1705 078A  
                   l1641 0690                     l1625 0653                     l1617 0643  
                   l1609 0608                     l1561 05BE                     l1553 05AF  
                   l1545 05A1                     l1537 058E                     l1801 047E  
                   l1457 0F3B                     l1449 0F1B                     l1465 0F4F  
                   l1481 0EAA                     l1473 0E9E                     l2097 0354  
                   l1723 07CA                     l1715 07BE                     l1707 07A8  
                   l1651 06A7                     l1643 0697                     l1635 0671  
                   l1619 0645                     l1627 0657                     l1571 05D2  
                   l1563 05BF                     l1555 05B5                     l1547 05A2  
                   l1539 058F                     l1811 04A9                     l1803 047F  
                   l1731 03B2                     l1467 0F54                     l1459 0F41  
                   l1491 0EC3                     l1483 0EAE                     l1475 0E9F  
                   l2099 035E                     l1725 07CE                     l1717 07C3  
                   l1709 07AC                     l1661 0706                     l1645 0699  
                   l1637 0688                     l1629 0663                     l1653 06AC  
                   l1581 05EC                     l1565 05C4                     l1573 05D4  
                   l1557 05B6                     l1549 05A4                     l1821 04C6  
                   l1805 0488                     l1813 04AD                     l1741 03C5  
                   l1733 03B7                     l1901 00AB                     l1469 0F59  
                   l1493 0EC7                     l1485 0EB3                     l1477 0EA3  
                   l1727 07D3                     l1719 07C4                     l1663 070B  
                   l1655 06C2                     l1647 069D                     l1639 068C  
                   l1591 05F6                     l1583 05EE                     l1575 05E2  
                   l1567 05C9                     l1559 05BA                     l1831 04DE  
                   l1823 04CA                     l1815 04B3                     l1807 049A  
                   l1751 03DD                     l1743 03CA                     l1735 03BB  
                   l1911 00D4                     l1903 00B4                     l1495 0ECB  
                   l1487 0EB9                     l1479 0EA8                     l1729 07D7  
                   l1681 0753                     l1673 073E                     l1657 0700  
                   l1665 071A                     l1649 069E                     l1593 05F8  
                   l1585 05F0                     l1577 05E6                     l1569 05D1  
                   l1841 04FF                     l1833 04DF                     l1825 04CB  
                   l1817 04BB                     l1809 049B                     l1761 03F0  
                   l1753 03E2                     l1745 03D2                     l1737 03BF  
                   l1921 00FE                     l1913 00DE                     l1905 00BB  
                   l1497 0ED5                     l1489 0EBC                     l1691 0761  
                   l1683 0755                     l1675 0747                     l1667 0730  
                   l1659 0704                     l1595 05FA                     l1587 05F2  
                   l1579 05EA                     l1843 0504                     l1851 0535  
                   l1835 04E3                     l1827 04D4                     l1819 04BD  
                   l1771 0410                     l1763 03F5                     l1755 03E6  
                   l1747 03D3                     l1739 03C0                     l1915 00F4  
                   l1907 00C6                     l1931 0166                     l1499 0EDB  
                   l1693 0765                     l1685 075A                     l1677 074B  
                   l1669 0735                     l1597 05FC                     l1589 05F4  
                   l1861 056B                     l1853 0542                     l1845 0512  
                   l1837 04F7                     l1829 04DA                     l1781 042E  
                   l1773 041C                     l1765 03FD                     l1757 03EA  
                   l1749 03D5                     l1917 00F9                     l1909 00CA  
                   l1933 017F                     l1925 0E4A                     l1695 076B  
                   l1679 0750                     l1687 075C                     l1599 05FE  
                   l1863 0570                     l1855 0550                     l1847 0516  
                   l1791 0459                     l1775 0420                     l1767 03FE  
                   l1759 03EB                     l1919 00FD                     l1951 01D5  
                   l1943 01A3                     l1935 019A                     l1927 0DB5  
                   l1689 0760                     l1865 0574                     l1857 055F  
                   l1849 052F                     l1793 0461                     l1785 0437  
                   l1769 0400                     l1881 0059                     l1961 01F9  
                   l1953 01F0                     l1945 01AD                     l1937 01A0  
                   l1929 0107                     l1699 0773                     l1867 0576  
                   l1859 0563                     l1795 0463                     l1787 0449  
                   l1779 0429                     l1891 0085                     l1883 0069  
                   l1963 0203                     l1955 01F6                     l1947 01B3  
                   l1981 0014                     l1869 057A                     l1797 0468  
                   l1789 0451                     l1893 0089                     l1885 0079  
                   l1877 0050                     l1965 0209                     l1949 01BA  
                   l1991 002D                     l1983 0018                     l1799 047A  
                   l1895 0092                     l1879 0055                     l1975 0219  
                   l1967 0210                     l1993 0033                     l1985 001A  
                   l1897 0099                     l1889 0082                     l1977 0223  
                   l1969 0216                     l1995 003C                     l1987 001E  
                   l1899 009D                     l1979 0229                     l1997 0042  
                   l1989 0024                     l1999 0048                     u2000 07C3  
                   u2001 07C2                     u2010 07C8                     u2011 07C7  
                   u2020 07D7                     u2100 042E                     u2021 07D6  
                   u2101 042D                     u2110 0468                     u2030 03BF  
                   u1310 0EFC                     u2111 0467                     u2031 03BE  
                   u1311 0EFB                     u2200 04CA                     u2040 03C5  
                   u1400 0F54                     u1320 0F07                     u2201 04C9  
                   u2041 03C4                     u1401 0F53                     u1321 0F06  
                   u2050 03CA                     u1330 0F18                     u1410 0EA3  
                   u2051 03C9                     u1331 0F17                     u1411 0EA2  
                   u2300 055F                     u2220 04DE                     u2140 047E  
                   u2060 03EA                     u1500 0F72                     u1420 0EAE  
                   u2301 055E                     u2221 04DD                     u2141 047D  
                   u2125 046A                     u2061 03E9                     u1501 0F71  
                   u1421 0EAD                     u2310 0574                     u2230 04E3  
                   u2070 03F0                     u1510 0F8E                     u1350 0F2A  
                   u1430 0EB9                     u2311 0573                     u2231 04E2  
                   u2215 04CD                     u2135 0473                     u2071 03EF  
                   u1511 0F8D                     u1351 0F29                     u1431 0EB8  
                   u1600 05B5                     u2240 04F7                     u2160 049A  
                   u2080 03F5                     u1520 0F9A                     u2400 00CA  
                   u2320 0055                     u1601 05B4                     u2305 055B  
                   u2241 04F6                     u2161 0499                     u2081 03F4  
                   u1521 0F99                     u2401 00C9                     u2321 0054  
                   u1345 0F1C                     u1610 05BE                     u2250 04FE  
                   u2170 04B3                     u2090 0410                     u2410 00D0  
                   u2330 0059                     u1370 0F3B                     u1450 0ECB  
                   u1611 05BD                     u2251 04FD                     u2171 04B2  
                   u2155 0481                     u2091 040F                     u1531 0FA9  
                   u2411 00CF                     u2331 0058                     u1371 0F3A  
                   u1451 0ECA                     u1700 0649                     u1620 05C4  
                   u2260 0504                     u2180 04BB                     u1540 0FC2  
                   u1532 0FAA                     u2420 00D4                     u2340 0079  
                   u2500 01F0                     u1460 0ED5                     u1701 0648  
                   u1621 05C3                     u2261 0503                     u2181 04BA  
                   u2165 0496                     u1541 0FC1                     u1533 0FAF  
                   u2421 00D3                     u2341 0078                     u2501 01EF  
                   u1365 0F2B                     u1461 0ED4                     u1445 0EBD  
                   u1630 05C9                     u2270 0516                     u1534 0FB0  
                   u2430 00E9                     u2510 020F                     u1390 0F4F  
                   u1631 05C8                     u2271 0515                     u1551 0FD1  
                   u1535 0FB5                     u2511 020E                     u1391 0F4E  
                   u1375 0F37                     u1800 06C2                     u1720 065F  
                   u1640 05E2                     u2280 0525                     u1560 0FFC  
                   u1552 0FD2                     u1536 0FB6                     u2440 00F9  
                   u2360 0098                     u2520 022F                     u1480 0EE8  
                   u2600 0354                     u1801 06C1                     u1721 065E  
                   u1641 05E1                     u1561 0FFB                     u1553 0FD7  
                   u2441 00F8                     u2361 0097                     u2521 022E  
                   u1385 0F43                     u1481 0EE7                     u1465 0ED1  
                   u2601 0353                     u1730 0663                     u1650 05E6  
                   u1570 058E                     u2290 0542                     u1554 0FD8  
                   u2450 00FD                     u1490 0EED                     u2530 0262  
                   u1811 06D9                     u1803 06BE                     u1731 0662  
                   u1715 064C                     u1651 05E5                     u1571 058D  
                   u2291 0541                     u2195 04BF                     u1555 0FDD  
                   u2451 00FC                     u2435 00E4                     u2355 008A  
                   u1491 0EEC                     u1475 0EDC                     u2531 0261  
                   u1900 0760                     u1820 06ED                     u1812 06DA  
                   u1740 0668                     u1660 0620                     u1580 0594  
                   u1556 0FDE                     u2380 00BA                     u2460 017F  
                   u2540 0282                     u1901 075F                     u1821 06EE  
                   u1813 06DF                     u1741 0667                     u1661 061F  
                   u1581 0593                     u2285 0520                     u1565 0FF8  
                   u2381 00B9                     u2461 017E                     u2541 0281  
                   u1910 0765                     u1830 070B                     u1822 06F3  
                   u1814 06E0                     u1670 062B                     u1590 0599  
                   u2470 019A                     u2550 02B3                     u1911 0764  
                   u1831 070A                     u1823 06F4                     u1815 06E5  
                   u1751 067A                     u1671 0629                     u1591 0598  
                   u2295 053E                     u2375 00AC                     u2471 0199  
                   u2551 02B2                     u1920 076B                     u1840 0730  
                   u1816 06E6                     u1760 068C                     u1752 0681  
                   u1680 062C                     u2480 01B9                     u2560 02BA  
                   u1921 076A                     u1841 072F                     u1761 068B  
                   u1753 0688                     u1665 061C                     u2481 01B8  
                   u2561 02B9                     u2617 02A7                     u1930 0772  
                   u1850 0735                     u1770 0690                     u1690 063C  
                   u2490 01D5                     u2570 02F0                     u1931 0771  
                   u1851 0734                     u1771 068F                     u1691 063B  
                   u2395 00BF                     u2627 0DE1                     u2491 01D4  
                   u2571 02EF                     u1940 0778                     u1780 069D  
                   u2580 032E                     u2637 0028                     u1941 0777  
                   u1781 069C                     u2581 032D                     u1950 078A  
                   u1870 074B                     u2590 0334                     u2647 0037  
                   u1951 0789                     u1871 074A                     u2591 0333  
                   u2575 02EC                     u1960 0799                     u1880 0750  
                   u2657 0E14                     u1881 074F                     u1865 0740  
                   u1970 07A8                     u1890 075A                     u1971 07A7  
                   u1891 0759                     u1795 06A0                     u1980 07B1  
                   u1981 07B0                     u1965 0794                     u1990 07B6  
                   u1991 07B5                     _bat1 003C                     _bat2 00BE  
                   _main 0006                     _init 0014                     btemp 007E  
                   start 0000          ___fldiv@new_exp 0032          __end_of___fladd 07D9  
                  ?_main 0070                    ?_init 0070          __end_of___fldiv 0581  
        __end_of___awdiv 0F5E          __end_of___awmod 0EF7          ___awdiv@divisor 0076  
        ___awdiv@counter 007A                    _PORTB 0006                    _PORTC 0007  
                  _PORTD 0008                    _TRISB 0086                    _TRISC 0087  
                  _TRISD 0088          __end_of_lcddata 0DED                    _array 00A0  
        __end_of_keyscan 03B2                    _value 0065                    pclath 000A  
                  status 0003                    wtemp0 007E          __initialization 07D9  
           __end_of_main 0014             __end_of_init 004F                   ??_main 007E  
                 ??_init 0073         ___awdiv@dividend 0078         __end_of___xxtofl 0107  
                 ___flge 0F5E                ??___fladd 0028                ??___fldiv 0028  
              ??___awdiv 007A                ??___awmod 0074                   _lcddec 0DB5  
                 _lcdcmd 0E06         ___awdiv@quotient 007C          ___awmod@divisor 0070  
        ___awmod@counter 0074                ??_lcddata 0070                ??_keyscan 003A  
             ___flge@ff1 0070               ___flge@ff2 0074             ___xxtofl@arg 007A  
           ___xxtofl@exp 0079             ___xxtofl@val 0070  __end_of__initialization 07FC  
         __pcstackCOMMON 0070             __pidataBANK0 0DED             __pidataBANK1 0E20  
             __pbssBANK0 0055               __pmaintext 0006                  ?___flge 0070  
                ?_lcddec 0073                  ?_lcdcmd 0070                ?___xxtofl 0070  
                ___fladd 0581                  ___fldiv 03B2                  ___awdiv 0EF7  
                ___awmod 0E9E        __end_of_lcdoutput 0E9E        __end_of_indicator 0230  
                __ptext1 0230                  __ptext2 0E4A                  __ptext3 0E9E  
                __ptext4 0EF7                  __ptext5 0DB5                  __ptext6 0107  
                __ptext7 0DD6                  __ptext8 004F                  __ptext9 0F5E  
                _lcddata 0DD6               ??___xxtofl 0074                  _keyscan 0230  
       ___awmod@dividend 0072                  lcddec@i 0073                  lcdcmd@i 0072  
                clrloop0 0DAE     end_of_initialization 07FC              ___fladd@grs 0033  
          ___xxtofl@sign 0078              ___fldiv@grs 0034              ___fldiv@rem 002D  
         __end_of___flge 1000           __end_of_lcddec 0DC3           __end_of_lcdcmd 0E20  
    start_initialization 07D9               lcdoutput@i 0020                 ??___flge 0078  
             init_fetch0 0DC3                 ??_lcddec 0075                 ??_lcdcmd 0070  
            __pdataBANK0 003C              __pdataBANK1 00A0                ___fladd@a 0024  
              ___fladd@b 0020                ___fldiv@a 0020                ___fldiv@b 0024  
              ___latbits 0002            __pcstackBANK0 0020                 ?___fladd 0020  
               ?___fldiv 0020                 ?___awdiv 0076                 ?___awmod 0070  
               ?_lcddata 0070                 ?_keyscan 0070                _lcdoutput 0E4A  
              _indicator 0107                clear_ram0 0DAD               ?_lcdoutput 0020  
             ?_indicator 0070                 ___xxtofl 004F                 __ptext10 03B2  
               __ptext11 0581                 __ptext12 0014                 __ptext13 0E06  
               lcddata@i 0072              ??_lcdoutput 0022              ??_indicator 007E  
               init_ram0 0DC7               _OPTION_REG 0081            ___fladd@signs 0030  
           ___fladd@aexp 0031             ___fladd@bexp 0032  
